
./MandelbrotSet:     file format mach-o-arm64


Disassembly of section .text:

0000000100001a80 <_main>:
   100001a80:	a9bc6ffc 	stp	x28, x27, [sp, #-64]!
   100001a84:	a90157f6 	stp	x22, x21, [sp, #16]
   100001a88:	a9024ff4 	stp	x20, x19, [sp, #32]
   100001a8c:	a9037bfd 	stp	x29, x30, [sp, #48]
   100001a90:	9100c3fd 	add	x29, sp, #0x30
   100001a94:	d10b03ff 	sub	sp, sp, #0x2c0
   100001a98:	aa0103f5 	mov	x21, x1
   100001a9c:	aa0003f6 	mov	x22, x0
   100001aa0:	52800020 	mov	w0, #0x1                   	// #1
   100001aa4:	52800601 	mov	w1, #0x30                  	// #48
   100001aa8:	94000732 	bl	100003770 <__Z10parseFlagsiPPcP10Mandelbrot+0x34c>
   100001aac:	aa0003f3 	mov	x19, x0
   100001ab0:	52800020 	mov	w0, #0x1                   	// #1
   100001ab4:	52800701 	mov	w1, #0x38                  	// #56
   100001ab8:	9400072e 	bl	100003770 <__Z10parseFlagsiPPcP10Mandelbrot+0x34c>
   100001abc:	aa0003f4 	mov	x20, x0
   100001ac0:	aa1303e0 	mov	x0, x19
   100001ac4:	940003dd 	bl	100002a38 <__Z9windowCtrP16WindowParameters>
   100001ac8:	aa1403e0 	mov	x0, x20
   100001acc:	94000050 	bl	100001c0c <__Z13mandelbrotCtrP10Mandelbrot>
   100001ad0:	aa1603e0 	mov	x0, x22
   100001ad4:	aa1503e1 	mov	x1, x21
   100001ad8:	aa1403e2 	mov	x2, x20
   100001adc:	94000652 	bl	100003424 <__Z10parseFlagsiPPcP10Mandelbrot>
   100001ae0:	f9401261 	ldr	x1, [x19, #32]
   100001ae4:	910123e0 	add	x0, sp, #0x48
   100001ae8:	52800402 	mov	w2, #0x20                  	// #32
   100001aec:	940006f1 	bl	1000036b0 <__Z10parseFlagsiPPcP10Mandelbrot+0x28c>
   100001af0:	9100a3e0 	add	x0, sp, #0x28
   100001af4:	94000704 	bl	100003704 <__Z10parseFlagsiPPcP10Mandelbrot+0x2e0>
   100001af8:	d0000001 	adrp	x1, 100003000 <__ZN2sf4FontD1Ev+0x50>
   100001afc:	9123b021 	add	x1, x1, #0x8ec
   100001b00:	9100c3e0 	add	x0, sp, #0x30
   100001b04:	9100a3e2 	add	x2, sp, #0x28
   100001b08:	940006de 	bl	100003680 <__Z10parseFlagsiPPcP10Mandelbrot+0x25c>
   100001b0c:	d0000008 	adrp	x8, 100003000 <__ZN2sf4FontD1Ev+0x50>
   100001b10:	3dc1f100 	ldr	q0, [x8, #1984]
   100001b14:	3d8003e0 	str	q0, [sp]
   100001b18:	d0000008 	adrp	x8, 100003000 <__ZN2sf4FontD1Ev+0x50>
   100001b1c:	fd43e900 	ldr	d0, [x8, #2000]
   100001b20:	fd000be0 	str	d0, [sp, #16]
   100001b24:	390063ff 	strb	wzr, [sp, #24]
   100001b28:	f94027e1 	ldr	x1, [sp, #72]
   100001b2c:	b94053e2 	ldr	w2, [sp, #80]
   100001b30:	910163e0 	add	x0, sp, #0x58
   100001b34:	9100c3e3 	add	x3, sp, #0x30
   100001b38:	910003e6 	mov	x6, sp
   100001b3c:	528000e4 	mov	w4, #0x7                   	// #7
   100001b40:	52800005 	mov	w5, #0x0                   	// #0
   100001b44:	940006b7 	bl	100003620 <__Z10parseFlagsiPPcP10Mandelbrot+0x1fc>
   100001b48:	39c11fe8 	ldrsb	w8, [sp, #71]
   100001b4c:	36f80068 	tbz	w8, #31, 100001b58 <_main+0xd8>
   100001b50:	f9401be0 	ldr	x0, [sp, #48]
   100001b54:	940006f2 	bl	10000371c <__Z10parseFlagsiPPcP10Mandelbrot+0x2f8>
   100001b58:	9100a3e0 	add	x0, sp, #0x28
   100001b5c:	940006ed 	bl	100003710 <__Z10parseFlagsiPPcP10Mandelbrot+0x2ec>
   100001b60:	b9402a60 	ldr	w0, [x19, #40]
   100001b64:	52800281 	mov	w1, #0x14                  	// #20
   100001b68:	94000702 	bl	100003770 <__Z10parseFlagsiPPcP10Mandelbrot+0x34c>
   100001b6c:	aa0003e1 	mov	x1, x0
   100001b70:	b9402e88 	ldr	w8, [x20, #44]
   100001b74:	340000c8 	cbz	w8, 100001b8c <_main+0x10c>
   100001b78:	910163e0 	add	x0, sp, #0x58
   100001b7c:	aa1303e2 	mov	x2, x19
   100001b80:	aa1403e3 	mov	x3, x20
   100001b84:	940005f6 	bl	10000335c <__Z8TestsRunPN2sf12RenderWindowEPNS_6VertexEPK16WindowParametersP10Mandelbrot>
   100001b88:	14000005 	b	100001b9c <_main+0x11c>
   100001b8c:	910163e0 	add	x0, sp, #0x58
   100001b90:	aa1303e2 	mov	x2, x19
   100001b94:	aa1403e3 	mov	x3, x20
   100001b98:	940003b7 	bl	100002a74 <__Z6appRunPN2sf12RenderWindowEPNS_6VertexEPK16WindowParametersP10Mandelbrot>
   100001b9c:	910163e0 	add	x0, sp, #0x58
   100001ba0:	940006be 	bl	100003698 <__Z10parseFlagsiPPcP10Mandelbrot+0x274>
   100001ba4:	52800000 	mov	w0, #0x0                   	// #0
   100001ba8:	910b03ff 	add	sp, sp, #0x2c0
   100001bac:	a9437bfd 	ldp	x29, x30, [sp, #48]
   100001bb0:	a9424ff4 	ldp	x20, x19, [sp, #32]
   100001bb4:	a94157f6 	ldp	x22, x21, [sp, #16]
   100001bb8:	a8c46ffc 	ldp	x28, x27, [sp], #64
   100001bbc:	d65f03c0 	ret
   100001bc0:	aa0003f3 	mov	x19, x0
   100001bc4:	910163e0 	add	x0, sp, #0x58
   100001bc8:	940006b4 	bl	100003698 <__Z10parseFlagsiPPcP10Mandelbrot+0x274>
   100001bcc:	aa1303e0 	mov	x0, x19
   100001bd0:	94000685 	bl	1000035e4 <__Z10parseFlagsiPPcP10Mandelbrot+0x1c0>
   100001bd4:	aa0003f3 	mov	x19, x0
   100001bd8:	39c11fe8 	ldrsb	w8, [sp, #71]
   100001bdc:	36f80108 	tbz	w8, #31, 100001bfc <_main+0x17c>
   100001be0:	f9401be0 	ldr	x0, [sp, #48]
   100001be4:	940006ce 	bl	10000371c <__Z10parseFlagsiPPcP10Mandelbrot+0x2f8>
   100001be8:	9100a3e0 	add	x0, sp, #0x28
   100001bec:	940006c9 	bl	100003710 <__Z10parseFlagsiPPcP10Mandelbrot+0x2ec>
   100001bf0:	aa1303e0 	mov	x0, x19
   100001bf4:	9400067c 	bl	1000035e4 <__Z10parseFlagsiPPcP10Mandelbrot+0x1c0>
   100001bf8:	aa0003f3 	mov	x19, x0
   100001bfc:	9100a3e0 	add	x0, sp, #0x28
   100001c00:	940006c4 	bl	100003710 <__Z10parseFlagsiPPcP10Mandelbrot+0x2ec>
   100001c04:	aa1303e0 	mov	x0, x19
   100001c08:	94000677 	bl	1000035e4 <__Z10parseFlagsiPPcP10Mandelbrot+0x1c0>

0000000100001c0c <__Z13mandelbrotCtrP10Mandelbrot>:
   100001c0c:	d0000008 	adrp	x8, 100003000 <__ZN2sf4FontD1Ev+0x50>
   100001c10:	3dc1f900 	ldr	q0, [x8, #2016]
   100001c14:	3d800000 	str	q0, [x0]
   100001c18:	a9017c1f 	stp	xzr, xzr, [x0, #16]
   100001c1c:	d2e7fe08 	mov	x8, #0x3ff0000000000000    	// #4607182418800017408
   100001c20:	f9001008 	str	x8, [x0, #32]
   100001c24:	d0000008 	adrp	x8, 100003000 <__ZN2sf4FontD1Ev+0x50>
   100001c28:	3dc1fd00 	ldr	q0, [x8, #2032]
   100001c2c:	3c828000 	stur	q0, [x0, #40]
   100001c30:	52800000 	mov	w0, #0x0                   	// #0
   100001c34:	d65f03c0 	ret

0000000100001c38 <__Z23renderMandelbrotDefaultPN2sf6VertexEPK16WindowParametersP10Mandelbrot>:
   100001c38:	b9402028 	ldr	w8, [x1, #32]
   100001c3c:	34000b28 	cbz	w8, 100001da0 <__Z23renderMandelbrotDefaultPN2sf6VertexEPK16WindowParametersP10Mandelbrot+0x168>
   100001c40:	b9402429 	ldr	w9, [x1, #36]
   100001c44:	34000ae9 	cbz	w9, 100001da0 <__Z23renderMandelbrotDefaultPN2sf6VertexEPK16WindowParametersP10Mandelbrot+0x168>
   100001c48:	d280000a 	mov	x10, #0x0                   	// #0
   100001c4c:	d280000b 	mov	x11, #0x0                   	// #0
   100001c50:	6d410021 	ldp	d1, d0, [x1, #16]
   100001c54:	1e6c1002 	fmov	d2, #5.000000000000000000e-01
   100001c58:	6d401043 	ldp	d3, d4, [x2]
   100001c5c:	1f420c02 	fmadd	d2, d0, d2, d3
   100001c60:	6d411443 	ldp	d3, d5, [x2, #16]
   100001c64:	1e632842 	fadd	d2, d2, d3
   100001c68:	1e7c1003 	fmov	d3, #-5.000000000000000000e-01
   100001c6c:	1f431023 	fmadd	d3, d1, d3, d4
   100001c70:	1e652863 	fadd	d3, d3, d5
   100001c74:	fd401044 	ldr	d4, [x2, #32]
   100001c78:	1e630105 	ucvtf	d5, w8
   100001c7c:	1e43fd06 	ucvtf	d6, w8, #1
   100001c80:	1e630127 	ucvtf	d7, w9
   100001c84:	1e43fd30 	ucvtf	d16, w9, #1
   100001c88:	1e611011 	fmov	d17, #3.000000000000000000e+00
   100001c8c:	5280028c 	mov	w12, #0x14                  	// #20
   100001c90:	5290102d 	mov	w13, #0x8081                	// #32897
   100001c94:	52bfe00e 	mov	w14, #0xff000000            	// #-16777216
   100001c98:	14000004 	b	100001ca8 <__Z23renderMandelbrotDefaultPN2sf6VertexEPK16WindowParametersP10Mandelbrot+0x70>
   100001c9c:	9100056b 	add	x11, x11, #0x1
   100001ca0:	eb08017f 	cmp	x11, x8
   100001ca4:	540007e0 	b.eq	100001da0 <__Z23renderMandelbrotDefaultPN2sf6VertexEPK16WindowParametersP10Mandelbrot+0x168>  // b.none
   100001ca8:	d280000f 	mov	x15, #0x0                   	// #0
   100001cac:	9e630173 	ucvtf	d19, x11
   100001cb0:	1e663a72 	fsub	d18, d19, d6
   100001cb4:	1e651a52 	fdiv	d18, d18, d5
   100001cb8:	1e720812 	fmul	d18, d0, d18
   100001cbc:	1f440a52 	fmadd	d18, d18, d4, d2
   100001cc0:	1e624273 	fcvt	s19, d19
   100001cc4:	93407d4a 	sxtw	x10, w10
   100001cc8:	1400001b 	b	100001d34 <__Z23renderMandelbrotDefaultPN2sf6VertexEPK16WindowParametersP10Mandelbrot+0xfc>
   100001ccc:	11000601 	add	w1, w16, #0x1
   100001cd0:	531d7022 	lsl	w2, w1, #3
   100001cd4:	121d3043 	and	w3, w2, #0xfff8
   100001cd8:	1b0d7c63 	mul	w3, w3, w13
   100001cdc:	53177c63 	lsr	w3, w3, #23
   100001ce0:	4b032063 	sub	w3, w3, w3, lsl #8
   100001ce4:	0b030042 	add	w2, w2, w3
   100001ce8:	12003c42 	and	w2, w2, #0xffff
   100001cec:	531e7421 	lsl	w1, w1, #2
   100001cf0:	121e3423 	and	w3, w1, #0xfffc
   100001cf4:	1b0d7c63 	mul	w3, w3, w13
   100001cf8:	53177c63 	lsr	w3, w3, #23
   100001cfc:	4b032063 	sub	w3, w3, w3, lsl #8
   100001d00:	0b030021 	add	w1, w1, w3
   100001d04:	7103fa1f 	cmp	w16, #0xfe
   100001d08:	1a9101d0 	csel	w16, w14, w17, eq	// eq = none
   100001d0c:	2a020210 	orr	w16, w16, w2
   100001d10:	0b014210 	add	w16, w16, w1, lsl #16
   100001d14:	9b0c0151 	madd	x17, x10, x12, x0
   100001d18:	b9000a30 	str	w16, [x17, #8]
   100001d1c:	1e624294 	fcvt	s20, d20
   100001d20:	2d005233 	stp	s19, s20, [x17]
   100001d24:	9100054a 	add	x10, x10, #0x1
   100001d28:	910005ef 	add	x15, x15, #0x1
   100001d2c:	eb0901ff 	cmp	x15, x9
   100001d30:	54fffb60 	b.eq	100001c9c <__Z23renderMandelbrotDefaultPN2sf6VertexEPK16WindowParametersP10Mandelbrot+0x64>  // b.none
   100001d34:	9e6301f4 	ucvtf	d20, x15
   100001d38:	1e703a95 	fsub	d21, d20, d16
   100001d3c:	1e671ab5 	fdiv	d21, d21, d7
   100001d40:	1e750835 	fmul	d21, d1, d21
   100001d44:	1f440eb5 	fmadd	d21, d21, d4, d3
   100001d48:	12800010 	mov	w16, #0xffffffff            	// #-1
   100001d4c:	52bfe011 	mov	w17, #0xff000000            	// #-16777216
   100001d50:	1e604257 	fmov	d23, d18
   100001d54:	1e6042b6 	fmov	d22, d21
   100001d58:	11000610 	add	w16, w16, #0x1
   100001d5c:	1e768ad8 	fnmul	d24, d22, d22
   100001d60:	1f5762f8 	fmadd	d24, d23, d23, d24
   100001d64:	1e772af9 	fadd	d25, d23, d23
   100001d68:	1e782a57 	fadd	d23, d18, d24
   100001d6c:	1f565736 	fmadd	d22, d25, d22, d21
   100001d70:	1e760ad8 	fmul	d24, d22, d22
   100001d74:	1f5762f8 	fmadd	d24, d23, d23, d24
   100001d78:	1e61c318 	fsqrt	d24, d24
   100001d7c:	11040231 	add	w17, w17, #0x100
   100001d80:	1e712300 	fcmp	d24, d17
   100001d84:	54000065 	b.pl	100001d90 <__Z23renderMandelbrotDefaultPN2sf6VertexEPK16WindowParametersP10Mandelbrot+0x158>  // b.nfrst
   100001d88:	7103fe1f 	cmp	w16, #0xff
   100001d8c:	54fffe63 	b.cc	100001d58 <__Z23renderMandelbrotDefaultPN2sf6VertexEPK16WindowParametersP10Mandelbrot+0x120>  // b.lo, b.ul, b.last
   100001d90:	7103fa1f 	cmp	w16, #0xfe
   100001d94:	54fff9c9 	b.ls	100001ccc <__Z23renderMandelbrotDefaultPN2sf6VertexEPK16WindowParametersP10Mandelbrot+0x94>  // b.plast
   100001d98:	52bfe010 	mov	w16, #0xff000000            	// #-16777216
   100001d9c:	17ffffde 	b	100001d14 <__Z23renderMandelbrotDefaultPN2sf6VertexEPK16WindowParametersP10Mandelbrot+0xdc>
   100001da0:	52800000 	mov	w0, #0x0                   	// #0
   100001da4:	d65f03c0 	ret

0000000100001da8 <__Z20getPixelColorDefaultdd>:
   100001da8:	52800008 	mov	w8, #0x0                   	// #0
   100001dac:	12800009 	mov	w9, #0xffffffff            	// #-1
   100001db0:	1e611002 	fmov	d2, #3.000000000000000000e+00
   100001db4:	1e604004 	fmov	d4, d0
   100001db8:	1e604023 	fmov	d3, d1
   100001dbc:	11000529 	add	w9, w9, #0x1
   100001dc0:	1e638865 	fnmul	d5, d3, d3
   100001dc4:	1f441485 	fmadd	d5, d4, d4, d5
   100001dc8:	1e642886 	fadd	d6, d4, d4
   100001dcc:	1e6028a4 	fadd	d4, d5, d0
   100001dd0:	1f4304c3 	fmadd	d3, d6, d3, d1
   100001dd4:	1e630865 	fmul	d5, d3, d3
   100001dd8:	1f441485 	fmadd	d5, d4, d4, d5
   100001ddc:	1e61c0a5 	fsqrt	d5, d5
   100001de0:	11040108 	add	w8, w8, #0x100
   100001de4:	1e6220a0 	fcmp	d5, d2
   100001de8:	54000065 	b.pl	100001df4 <__Z20getPixelColorDefaultdd+0x4c>  // b.nfrst
   100001dec:	7103fd3f 	cmp	w9, #0xff
   100001df0:	54fffe63 	b.cc	100001dbc <__Z20getPixelColorDefaultdd+0x14>  // b.lo, b.ul, b.last
   100001df4:	52bfe000 	mov	w0, #0xff000000            	// #-16777216
   100001df8:	7103f93f 	cmp	w9, #0xfe
   100001dfc:	540002a8 	b.hi	100001e50 <__Z20getPixelColorDefaultdd+0xa8>  // b.pmore
   100001e00:	1100052a 	add	w10, w9, #0x1
   100001e04:	531d714b 	lsl	w11, w10, #3
   100001e08:	121d316c 	and	w12, w11, #0xfff8
   100001e0c:	5290102d 	mov	w13, #0x8081                	// #32897
   100001e10:	1b0d7d8c 	mul	w12, w12, w13
   100001e14:	53177d8c 	lsr	w12, w12, #23
   100001e18:	4b0c218c 	sub	w12, w12, w12, lsl #8
   100001e1c:	0b0c016b 	add	w11, w11, w12
   100001e20:	12003d6b 	and	w11, w11, #0xffff
   100001e24:	531e754a 	lsl	w10, w10, #2
   100001e28:	121e354c 	and	w12, w10, #0xfffc
   100001e2c:	1b0d7d8c 	mul	w12, w12, w13
   100001e30:	53177d8c 	lsr	w12, w12, #23
   100001e34:	4b0c218c 	sub	w12, w12, w12, lsl #8
   100001e38:	0b0c014a 	add	w10, w10, w12
   100001e3c:	7103f93f 	cmp	w9, #0xfe
   100001e40:	1a8803e8 	csel	w8, wzr, w8, eq	// eq = none
   100001e44:	0b0a4108 	add	w8, w8, w10, lsl #16
   100001e48:	2a0b0108 	orr	w8, w8, w11
   100001e4c:	0b000100 	add	w0, w8, w0
   100001e50:	d65f03c0 	ret

0000000100001e54 <__Z25renderMandelbrotOptimizedPN2sf6VertexEPK16WindowParametersP10Mandelbrot>:
   100001e54:	d10743ff 	sub	sp, sp, #0x1d0
   100001e58:	6d1533ed 	stp	d13, d12, [sp, #336]
   100001e5c:	6d162beb 	stp	d11, d10, [sp, #352]
   100001e60:	6d1723e9 	stp	d9, d8, [sp, #368]
   100001e64:	a91867fa 	stp	x26, x25, [sp, #384]
   100001e68:	a9195ff8 	stp	x24, x23, [sp, #400]
   100001e6c:	a91a57f6 	stp	x22, x21, [sp, #416]
   100001e70:	a91b4ff4 	stp	x20, x19, [sp, #432]
   100001e74:	a91c7bfd 	stp	x29, x30, [sp, #448]
   100001e78:	910703fd 	add	x29, sp, #0x1c0
   100001e7c:	d2800013 	mov	x19, #0x0                   	// #0
   100001e80:	d2800014 	mov	x20, #0x0                   	// #0
   100001e84:	f0000008 	adrp	x8, 100004000 <GCC_except_table7+0x724>
   100001e88:	f9409108 	ldr	x8, [x8, #288]
   100001e8c:	f9400108 	ldr	x8, [x8]
   100001e90:	f81883a8 	stur	x8, [x29, #-120]
   100001e94:	6d400440 	ldp	d0, d1, [x2]
   100001e98:	6d410c42 	ldp	d2, d3, [x2, #16]
   100001e9c:	fd401044 	ldr	d4, [x2, #32]
   100001ea0:	6f00e405 	movi	v5.2d, #0x0
   100001ea4:	ad3b17a5 	stp	q5, q5, [x29, #-160]
   100001ea8:	ad3a17a5 	stp	q5, q5, [x29, #-192]
   100001eac:	ad0717e5 	stp	q5, q5, [sp, #224]
   100001eb0:	ad0617e5 	stp	q5, q5, [sp, #192]
   100001eb4:	1e6f1005 	fmov	d5, #1.500000000000000000e+00
   100001eb8:	1e652800 	fadd	d0, d0, d5
   100001ebc:	1e7e1005 	fmov	d5, #-1.000000000000000000e+00
   100001ec0:	1e652821 	fadd	d1, d1, d5
   100001ec4:	52bfe008 	mov	w8, #0xff000000            	// #-16777216
   100001ec8:	b900a3e8 	str	w8, [sp, #160]
   100001ecc:	79014bff 	strh	wzr, [sp, #164]
   100001ed0:	b2181fe8 	mov	x8, #0xff000000ff00        	// #280375465148160
   100001ed4:	f80aa3e8 	stur	x8, [sp, #170]
   100001ed8:	f80b23e8 	stur	x8, [sp, #178]
   100001edc:	529fe008 	mov	w8, #0xff00                	// #65280
   100001ee0:	b80a63e8 	stur	w8, [sp, #166]
   100001ee4:	b80ba3e8 	stur	w8, [sp, #186]
   100001ee8:	79017fe8 	strh	w8, [sp, #190]
   100001eec:	1e622808 	fadd	d8, d0, d2
   100001ef0:	1e632820 	fadd	d0, d1, d3
   100001ef4:	1e611001 	fmov	d1, #3.000000000000000000e+00
   100001ef8:	1e610889 	fmul	d9, d4, d1
   100001efc:	1e642882 	fadd	d2, d4, d4
   100001f00:	4e080403 	dup	v3.2d, v0.d[0]
   100001f04:	91014015 	add	x21, x0, #0x50
   100001f08:	d2c80008 	mov	x8, #0x400000000000        	// #70368744177664
   100001f0c:	f2f80fe8 	movk	x8, #0xc07f, lsl #48
   100001f10:	9e67010a 	fmov	d10, x8
   100001f14:	d2c80008 	mov	x8, #0x400000000000        	// #70368744177664
   100001f18:	f2e811e8 	movk	x8, #0x408f, lsl #48
   100001f1c:	9e67010b 	fmov	d11, x8
   100001f20:	d0000008 	adrp	x8, 100003000 <__ZN2sf4FontD1Ev+0x50>
   100001f24:	3dc20104 	ldr	q4, [x8, #2048]
   100001f28:	d0000008 	adrp	x8, 100003000 <__ZN2sf4FontD1Ev+0x50>
   100001f2c:	3dc20505 	ldr	q5, [x8, #2064]
   100001f30:	d0000008 	adrp	x8, 100003000 <__ZN2sf4FontD1Ev+0x50>
   100001f34:	3dc20906 	ldr	q6, [x8, #2080]
   100001f38:	d2f80f28 	mov	x8, #0xc079000000000000    	// #-4577627546245398528
   100001f3c:	4e080d07 	dup	v7.2d, x8
   100001f40:	d2e81128 	mov	x8, #0x4089000000000000    	// #4650248090236747776
   100001f44:	4e080d10 	dup	v16.2d, x8
   100001f48:	52800296 	mov	w22, #0x14                  	// #20
   100001f4c:	ad028be3 	stp	q3, q2, [sp, #80]
   100001f50:	ad0193e5 	stp	q5, q4, [sp, #48]
   100001f54:	ad009be7 	stp	q7, q6, [sp, #16]
   100001f58:	3d8003f0 	str	q16, [sp]
   100001f5c:	d2800017 	mov	x23, #0x0                   	// #0
   100001f60:	9e630260 	ucvtf	d0, x19
   100001f64:	9e23026c 	ucvtf	s12, x19
   100001f68:	1e6a2800 	fadd	d0, d0, d10
   100001f6c:	1e6b1800 	fdiv	d0, d0, d11
   100001f70:	1e600920 	fmul	d0, d9, d0
   100001f74:	1e60290d 	fadd	d13, d8, d0
   100001f78:	9b165698 	madd	x24, x20, x22, x21
   100001f7c:	9e6702e0 	fmov	d0, x23
   100001f80:	4e080ee1 	dup	v1.2d, x23
   100001f84:	4ea41c31 	orr	v17.16b, v1.16b, v4.16b
   100001f88:	4ea51c25 	orr	v5.16b, v1.16b, v5.16b
   100001f8c:	ad03c7e5 	stp	q5, q17, [sp, #112]
   100001f90:	4ea61c24 	orr	v4.16b, v1.16b, v6.16b
   100001f94:	3d8027e4 	str	q4, [sp, #144]
   100001f98:	6d3437ad 	stp	d13, d13, [x29, #-192]
   100001f9c:	910006f9 	add	x25, x23, #0x1
   100001fa0:	4e181f20 	mov	v0.d[1], x25
   100001fa4:	6e61d800 	ucvtf	v0.2d, v0.2d
   100001fa8:	4e67d400 	fadd	v0.2d, v0.2d, v7.2d
   100001fac:	6e70fc00 	fdiv	v0.2d, v0.2d, v16.2d
   100001fb0:	4fc29000 	fmul	v0.2d, v0.2d, v2.d[0]
   100001fb4:	4e60d460 	fadd	v0.2d, v3.2d, v0.2d
   100001fb8:	6d3537ad 	stp	d13, d13, [x29, #-176]
   100001fbc:	6e61da21 	ucvtf	v1.2d, v17.2d
   100001fc0:	4e67d421 	fadd	v1.2d, v1.2d, v7.2d
   100001fc4:	6e70fc21 	fdiv	v1.2d, v1.2d, v16.2d
   100001fc8:	4fc29021 	fmul	v1.2d, v1.2d, v2.d[0]
   100001fcc:	4e61d461 	fadd	v1.2d, v3.2d, v1.2d
   100001fd0:	ad0607e0 	stp	q0, q1, [sp, #192]
   100001fd4:	6d3637ad 	stp	d13, d13, [x29, #-160]
   100001fd8:	6e61d8a0 	ucvtf	v0.2d, v5.2d
   100001fdc:	4e67d400 	fadd	v0.2d, v0.2d, v7.2d
   100001fe0:	6e70fc00 	fdiv	v0.2d, v0.2d, v16.2d
   100001fe4:	4fc29000 	fmul	v0.2d, v0.2d, v2.d[0]
   100001fe8:	4e60d460 	fadd	v0.2d, v3.2d, v0.2d
   100001fec:	6d3737ad 	stp	d13, d13, [x29, #-144]
   100001ff0:	6e61d881 	ucvtf	v1.2d, v4.2d
   100001ff4:	4e67d421 	fadd	v1.2d, v1.2d, v7.2d
   100001ff8:	6e70fc21 	fdiv	v1.2d, v1.2d, v16.2d
   100001ffc:	4fc29021 	fmul	v1.2d, v1.2d, v2.d[0]
   100002000:	4e61d461 	fadd	v1.2d, v3.2d, v1.2d
   100002004:	ad0707e0 	stp	q0, q1, [sp, #224]
   100002008:	d10303a0 	sub	x0, x29, #0xc0
   10000200c:	910303e1 	add	x1, sp, #0xc0
   100002010:	910283e2 	add	x2, sp, #0xa0
   100002014:	94000044 	bl	100002124 <__Z22getPixelColorOptimizedPdS_PN2sf5ColorE>
   100002018:	ad401ff0 	ldp	q16, q7, [sp]
   10000201c:	ad4117e6 	ldp	q6, q5, [sp, #32]
   100002020:	ad420fe4 	ldp	q4, q3, [sp, #64]
   100002024:	3dc01be2 	ldr	q2, [sp, #96]
   100002028:	295427e8 	ldp	w8, w9, [sp, #160]
   10000202c:	b81b8308 	stur	w8, [x24, #-72]
   100002030:	b81cc309 	stur	w9, [x24, #-52]
   100002034:	295527e8 	ldp	w8, w9, [sp, #168]
   100002038:	b81e0308 	stur	w8, [x24, #-32]
   10000203c:	b81f4309 	stur	w9, [x24, #-12]
   100002040:	295627e8 	ldp	w8, w9, [sp, #176]
   100002044:	b9000b08 	str	w8, [x24, #8]
   100002048:	b9001f09 	str	w9, [x24, #28]
   10000204c:	295727e8 	ldp	w8, w9, [sp, #184]
   100002050:	b9003308 	str	w8, [x24, #48]
   100002054:	b9004709 	str	w9, [x24, #68]
   100002058:	9e2302e0 	ucvtf	s0, x23
   10000205c:	2d36030c 	stp	s12, s0, [x24, #-80]
   100002060:	9e230320 	ucvtf	s0, x25
   100002064:	2d38830c 	stp	s12, s0, [x24, #-60]
   100002068:	ad4387f1 	ldp	q17, q1, [sp, #112]
   10000206c:	9e660028 	fmov	x8, d1
   100002070:	9e230100 	ucvtf	s0, x8
   100002074:	2d3b030c 	stp	s12, s0, [x24, #-40]
   100002078:	4e183c28 	mov	x8, v1.d[1]
   10000207c:	9e230100 	ucvtf	s0, x8
   100002080:	9e660228 	fmov	x8, d17
   100002084:	9e230101 	ucvtf	s1, x8
   100002088:	2d3d830c 	stp	s12, s0, [x24, #-20]
   10000208c:	4e183e28 	mov	x8, v17.d[1]
   100002090:	9e230100 	ucvtf	s0, x8
   100002094:	2d00070c 	stp	s12, s1, [x24]
   100002098:	2d02830c 	stp	s12, s0, [x24, #20]
   10000209c:	3dc027e1 	ldr	q1, [sp, #144]
   1000020a0:	9e660028 	fmov	x8, d1
   1000020a4:	9e230100 	ucvtf	s0, x8
   1000020a8:	2d05030c 	stp	s12, s0, [x24, #40]
   1000020ac:	4e183c28 	mov	x8, v1.d[1]
   1000020b0:	9e230100 	ucvtf	s0, x8
   1000020b4:	910022e8 	add	x8, x23, #0x8
   1000020b8:	2d07830c 	stp	s12, s0, [x24, #60]
   1000020bc:	91028318 	add	x24, x24, #0xa0
   1000020c0:	f10c62ff 	cmp	x23, #0x318
   1000020c4:	aa0803f7 	mov	x23, x8
   1000020c8:	54fff5a3 	b.cc	100001f7c <__Z25renderMandelbrotOptimizedPN2sf6VertexEPK16WindowParametersP10Mandelbrot+0x128>  // b.lo, b.ul, b.last
   1000020cc:	91000673 	add	x19, x19, #0x1
   1000020d0:	8b080294 	add	x20, x20, x8
   1000020d4:	f10fa27f 	cmp	x19, #0x3e8
   1000020d8:	54fff421 	b.ne	100001f5c <__Z25renderMandelbrotOptimizedPN2sf6VertexEPK16WindowParametersP10Mandelbrot+0x108>  // b.any
   1000020dc:	f85883a8 	ldur	x8, [x29, #-120]
   1000020e0:	d0000009 	adrp	x9, 100004000 <GCC_except_table7+0x724>
   1000020e4:	f9409129 	ldr	x9, [x9, #288]
   1000020e8:	f9400129 	ldr	x9, [x9]
   1000020ec:	eb08013f 	cmp	x9, x8
   1000020f0:	54000181 	b.ne	100002120 <__Z25renderMandelbrotOptimizedPN2sf6VertexEPK16WindowParametersP10Mandelbrot+0x2cc>  // b.any
   1000020f4:	52800000 	mov	w0, #0x0                   	// #0
   1000020f8:	a95c7bfd 	ldp	x29, x30, [sp, #448]
   1000020fc:	a95b4ff4 	ldp	x20, x19, [sp, #432]
   100002100:	a95a57f6 	ldp	x22, x21, [sp, #416]
   100002104:	a9595ff8 	ldp	x24, x23, [sp, #400]
   100002108:	a95867fa 	ldp	x26, x25, [sp, #384]
   10000210c:	6d5723e9 	ldp	d9, d8, [sp, #368]
   100002110:	6d562beb 	ldp	d11, d10, [sp, #352]
   100002114:	6d5533ed 	ldp	d13, d12, [sp, #336]
   100002118:	910743ff 	add	sp, sp, #0x1d0
   10000211c:	d65f03c0 	ret
   100002120:	9400058e 	bl	100003758 <__Z10parseFlagsiPPcP10Mandelbrot+0x334>

0000000100002124 <__Z22getPixelColorOptimizedPdS_PN2sf5ColorE>:
   100002124:	6dbe2beb 	stp	d11, d10, [sp, #-32]!
   100002128:	6d0123e9 	stp	d9, d8, [sp, #16]
   10000212c:	5280000f 	mov	w15, #0x0                   	// #0
   100002130:	5280000e 	mov	w14, #0x0                   	// #0
   100002134:	5280000d 	mov	w13, #0x0                   	// #0
   100002138:	5280000c 	mov	w12, #0x0                   	// #0
   10000213c:	5280000b 	mov	w11, #0x0                   	// #0
   100002140:	5280000a 	mov	w10, #0x0                   	// #0
   100002144:	52800009 	mov	w9, #0x0                   	// #0
   100002148:	52800008 	mov	w8, #0x0                   	// #0
   10000214c:	ad411406 	ldp	q6, q5, [x0, #32]
   100002150:	ad401c10 	ldp	q16, q7, [x0]
   100002154:	ad414432 	ldp	q18, q17, [x1, #32]
   100002158:	ad404c34 	ldp	q20, q19, [x1]
   10000215c:	4eb01e19 	mov	v25.16b, v16.16b
   100002160:	4ea71cf6 	mov	v22.16b, v7.16b
   100002164:	4ea61cd7 	mov	v23.16b, v6.16b
   100002168:	4ea51cba 	mov	v26.16b, v5.16b
   10000216c:	1e611018 	fmov	d24, #3.000000000000000000e+00
   100002170:	4eb41e9e 	mov	v30.16b, v20.16b
   100002174:	4eb31e7c 	mov	v28.16b, v19.16b
   100002178:	4eb21e5b 	mov	v27.16b, v18.16b
   10000217c:	4eb11e3f 	mov	v31.16b, v17.16b
   100002180:	14000002 	b	100002188 <__Z22getPixelColorOptimizedPdS_PN2sf5ColorE+0x64>
   100002184:	36000f30 	tbz	w16, #0, 100002368 <__Z22getPixelColorOptimizedPdS_PN2sf5ColorE+0x244>
   100002188:	4ebf1fe1 	mov	v1.16b, v31.16b
   10000218c:	4ebb1f60 	mov	v0.16b, v27.16b
   100002190:	4ebc1f84 	mov	v4.16b, v28.16b
   100002194:	4ebe1fc2 	mov	v2.16b, v30.16b
   100002198:	6ee0fb63 	fneg	v3.2d, v27.2d
   10000219c:	4e77d6f5 	fadd	v21.2d, v23.2d, v23.2d
   1000021a0:	6e63df63 	fmul	v3.2d, v27.2d, v3.2d
   1000021a4:	4e77cee3 	fmla	v3.2d, v23.2d, v23.2d
   1000021a8:	4e63d4d7 	fadd	v23.2d, v6.2d, v3.2d
   1000021ac:	4eb21e5b 	mov	v27.16b, v18.16b
   1000021b0:	4e75cc1b 	fmla	v27.2d, v0.2d, v21.2d
   1000021b4:	5e180760 	mov	d0, v27.d[1]
   1000021b8:	5fdb9800 	fmul	d0, d0, v27.d[1]
   1000021bc:	5e1806e3 	mov	d3, v23.d[1]
   1000021c0:	5fd71860 	fmla	d0, d3, v23.d[1]
   1000021c4:	1e61c000 	fsqrt	d0, d0
   1000021c8:	1e782000 	fcmp	d0, d24
   1000021cc:	1a8a554a 	cinc	w10, w10, mi	// mi = first
   1000021d0:	7104015f 	cmp	w10, #0x100
   1000021d4:	1a9f27f0 	cset	w16, cc	// cc = lo, ul, last
   1000021d8:	1e782000 	fcmp	d0, d24
   1000021dc:	5fdb9363 	fmul	d3, d27, v27.d[0]
   1000021e0:	1f570ee3 	fmadd	d3, d23, d23, d3
   1000021e4:	1e61c063 	fsqrt	d3, d3
   1000021e8:	1a9053f0 	csel	w16, wzr, w16, pl	// pl = nfrst
   1000021ec:	1e782060 	fcmp	d3, d24
   1000021f0:	1a8b556b 	cinc	w11, w11, mi	// mi = first
   1000021f4:	7104017f 	cmp	w11, #0x100
   1000021f8:	1a9f27f1 	cset	w17, cc	// cc = lo, ul, last
   1000021fc:	1e782060 	fcmp	d3, d24
   100002200:	6ee0fb95 	fneg	v21.2d, v28.2d
   100002204:	4e76d6dd 	fadd	v29.2d, v22.2d, v22.2d
   100002208:	6e75df95 	fmul	v21.2d, v28.2d, v21.2d
   10000220c:	4e76ced5 	fmla	v21.2d, v22.2d, v22.2d
   100002210:	4e75d4f6 	fadd	v22.2d, v7.2d, v21.2d
   100002214:	4eb31e7c 	mov	v28.16b, v19.16b
   100002218:	4e7dcc9c 	fmla	v28.2d, v4.2d, v29.2d
   10000221c:	5e180784 	mov	d4, v28.d[1]
   100002220:	5fdc9884 	fmul	d4, d4, v28.d[1]
   100002224:	5e1806d5 	mov	d21, v22.d[1]
   100002228:	5fd61aa4 	fmla	d4, d21, v22.d[1]
   10000222c:	1e61c084 	fsqrt	d4, d4
   100002230:	1a9153f1 	csel	w17, wzr, w17, pl	// pl = nfrst
   100002234:	1e782080 	fcmp	d4, d24
   100002238:	1a8c558c 	cinc	w12, w12, mi	// mi = first
   10000223c:	7104019f 	cmp	w12, #0x100
   100002240:	1a9f27e0 	cset	w0, cc	// cc = lo, ul, last
   100002244:	1e782080 	fcmp	d4, d24
   100002248:	5fdc9395 	fmul	d21, d28, v28.d[0]
   10000224c:	1f5656d5 	fmadd	d21, d22, d22, d21
   100002250:	1e61c2b5 	fsqrt	d21, d21
   100002254:	1a8053e0 	csel	w0, wzr, w0, pl	// pl = nfrst
   100002258:	1e7822a0 	fcmp	d21, d24
   10000225c:	1a8d55ad 	cinc	w13, w13, mi	// mi = first
   100002260:	710401bf 	cmp	w13, #0x100
   100002264:	1a9f27e1 	cset	w1, cc	// cc = lo, ul, last
   100002268:	1e7822a0 	fcmp	d21, d24
   10000226c:	6ee0fbdd 	fneg	v29.2d, v30.2d
   100002270:	6ee0fbfe 	fneg	v30.2d, v31.2d
   100002274:	4e79d728 	fadd	v8.2d, v25.2d, v25.2d
   100002278:	4e7ad749 	fadd	v9.2d, v26.2d, v26.2d
   10000227c:	6e7edffe 	fmul	v30.2d, v31.2d, v30.2d
   100002280:	6e7ddc5d 	fmul	v29.2d, v2.2d, v29.2d
   100002284:	4e79cf3d 	fmla	v29.2d, v25.2d, v25.2d
   100002288:	4e7acf5e 	fmla	v30.2d, v26.2d, v26.2d
   10000228c:	4e7ed4ba 	fadd	v26.2d, v5.2d, v30.2d
   100002290:	4e7dd619 	fadd	v25.2d, v16.2d, v29.2d
   100002294:	4eb11e3f 	mov	v31.16b, v17.16b
   100002298:	4e69cc3f 	fmla	v31.2d, v1.2d, v9.2d
   10000229c:	4eb41e9e 	mov	v30.16b, v20.16b
   1000022a0:	4e68cc5e 	fmla	v30.2d, v2.2d, v8.2d
   1000022a4:	5fde93c1 	fmul	d1, d30, v30.d[0]
   1000022a8:	1f590721 	fmadd	d1, d25, d25, d1
   1000022ac:	5e1807c2 	mov	d2, v30.d[1]
   1000022b0:	5fde9842 	fmul	d2, d2, v30.d[1]
   1000022b4:	5e18073d 	mov	d29, v25.d[1]
   1000022b8:	5fd91ba2 	fmla	d2, d29, v25.d[1]
   1000022bc:	5fdf93fd 	fmul	d29, d31, v31.d[0]
   1000022c0:	1f5a7749 	fmadd	d9, d26, d26, d29
   1000022c4:	5e1807fd 	mov	d29, v31.d[1]
   1000022c8:	5fdf9baa 	fmul	d10, d29, v31.d[1]
   1000022cc:	5e18075d 	mov	d29, v26.d[1]
   1000022d0:	5fda1baa 	fmla	d10, d29, v26.d[1]
   1000022d4:	1e61c028 	fsqrt	d8, d1
   1000022d8:	1a8153e1 	csel	w1, wzr, w1, pl	// pl = nfrst
   1000022dc:	1e782100 	fcmp	d8, d24
   1000022e0:	1a9f57e3 	cset	w3, mi	// mi = first
   1000022e4:	1e61c05d 	fsqrt	d29, d2
   1000022e8:	1a8f55ef 	cinc	w15, w15, mi	// mi = first
   1000022ec:	1e7823a0 	fcmp	d29, d24
   1000022f0:	1a9f57e4 	cset	w4, mi	// mi = first
   1000022f4:	1e61c122 	fsqrt	d2, d9
   1000022f8:	1a8e55ce 	cinc	w14, w14, mi	// mi = first
   1000022fc:	1e782040 	fcmp	d2, d24
   100002300:	1a9f57e5 	cset	w5, mi	// mi = first
   100002304:	1e61c141 	fsqrt	d1, d10
   100002308:	1a895529 	cinc	w9, w9, mi	// mi = first
   10000230c:	1e782020 	fcmp	d1, d24
   100002310:	1a885508 	cinc	w8, w8, mi	// mi = first
   100002314:	710401ff 	cmp	w15, #0x100
   100002318:	1a9f27e6 	cset	w6, cc	// cc = lo, ul, last
   10000231c:	0a0300c3 	and	w3, w6, w3
   100002320:	710401df 	cmp	w14, #0x100
   100002324:	1a9f27e6 	cset	w6, cc	// cc = lo, ul, last
   100002328:	0a0400c4 	and	w4, w6, w4
   10000232c:	2a040063 	orr	w3, w3, w4
   100002330:	7104013f 	cmp	w9, #0x100
   100002334:	1a9f27e4 	cset	w4, cc	// cc = lo, ul, last
   100002338:	0a050084 	and	w4, w4, w5
   10000233c:	2a100090 	orr	w16, w4, w16
   100002340:	2a000231 	orr	w17, w17, w0
   100002344:	2a110210 	orr	w16, w16, w17
   100002348:	2a030031 	orr	w17, w1, w3
   10000234c:	2a110210 	orr	w16, w16, w17
   100002350:	7104011f 	cmp	w8, #0x100
   100002354:	54fff182 	b.cs	100002184 <__Z22getPixelColorOptimizedPdS_PN2sf5ColorE+0x60>  // b.hs, b.nlast
   100002358:	1e782020 	fcmp	d1, d24
   10000235c:	1a9f57f1 	cset	w17, mi	// mi = first
   100002360:	2a100230 	orr	w16, w17, w16
   100002364:	17ffff88 	b	100002184 <__Z22getPixelColorOptimizedPdS_PN2sf5ColorE+0x60>
   100002368:	1e611005 	fmov	d5, #3.000000000000000000e+00
   10000236c:	1e652100 	fcmp	d8, d5
   100002370:	54001465 	b.pl	1000025fc <__Z22getPixelColorOptimizedPdS_PN2sf5ColorE+0x4d8>  // b.nfrst
   100002374:	52bfe00f 	mov	w15, #0xff000000            	// #-16777216
   100002378:	b900004f 	str	w15, [x2]
   10000237c:	1e6523a0 	fcmp	d29, d5
   100002380:	540016a4 	b.mi	100002654 <__Z22getPixelColorOptimizedPdS_PN2sf5ColorE+0x530>  // b.first
   100002384:	5290102f 	mov	w15, #0x8081                	// #32897
   100002388:	72b0100f 	movk	w15, #0x8080, lsl #16
   10000238c:	531e75d0 	lsl	w16, w14, #2
   100002390:	9baf7e11 	umull	x17, w16, w15
   100002394:	d367fe31 	lsr	x17, x17, #39
   100002398:	0b110210 	add	w16, w16, w17
   10000239c:	9baf7dd1 	umull	x17, w14, w15
   1000023a0:	d367fe31 	lsr	x17, x17, #39
   1000023a4:	4b112231 	sub	w17, w17, w17, lsl #8
   1000023a8:	0b1101d1 	add	w17, w14, w17
   1000023ac:	531d71ce 	lsl	w14, w14, #3
   1000023b0:	9baf7dcf 	umull	x15, w14, w15
   1000023b4:	d367fdef 	lsr	x15, x15, #39
   1000023b8:	4b0f21ef 	sub	w15, w15, w15, lsl #8
   1000023bc:	53103e10 	lsl	w16, w16, #16
   1000023c0:	2a112210 	orr	w16, w16, w17, lsl #8
   1000023c4:	0b0f01ce 	add	w14, w14, w15
   1000023c8:	2a0e020e 	orr	w14, w16, w14
   1000023cc:	32081dce 	orr	w14, w14, #0xff000000
   1000023d0:	b900044e 	str	w14, [x2, #4]
   1000023d4:	1e6522a0 	fcmp	d21, d5
   1000023d8:	54001464 	b.mi	100002664 <__Z22getPixelColorOptimizedPdS_PN2sf5ColorE+0x540>  // b.first
   1000023dc:	5290102e 	mov	w14, #0x8081                	// #32897
   1000023e0:	72b0100e 	movk	w14, #0x8080, lsl #16
   1000023e4:	531e75af 	lsl	w15, w13, #2
   1000023e8:	9bae7df0 	umull	x16, w15, w14
   1000023ec:	d367fe10 	lsr	x16, x16, #39
   1000023f0:	0b1001ef 	add	w15, w15, w16
   1000023f4:	9bae7db0 	umull	x16, w13, w14
   1000023f8:	d367fe10 	lsr	x16, x16, #39
   1000023fc:	4b102210 	sub	w16, w16, w16, lsl #8
   100002400:	0b1001b0 	add	w16, w13, w16
   100002404:	531d71ad 	lsl	w13, w13, #3
   100002408:	9bae7dae 	umull	x14, w13, w14
   10000240c:	d367fdce 	lsr	x14, x14, #39
   100002410:	4b0e21ce 	sub	w14, w14, w14, lsl #8
   100002414:	53103def 	lsl	w15, w15, #16
   100002418:	2a1021ef 	orr	w15, w15, w16, lsl #8
   10000241c:	0b0e01ad 	add	w13, w13, w14
   100002420:	2a0d01ed 	orr	w13, w15, w13
   100002424:	32081dad 	orr	w13, w13, #0xff000000
   100002428:	b900084d 	str	w13, [x2, #8]
   10000242c:	1e652080 	fcmp	d4, d5
   100002430:	54001224 	b.mi	100002674 <__Z22getPixelColorOptimizedPdS_PN2sf5ColorE+0x550>  // b.first
   100002434:	5290102d 	mov	w13, #0x8081                	// #32897
   100002438:	72b0100d 	movk	w13, #0x8080, lsl #16
   10000243c:	531e758e 	lsl	w14, w12, #2
   100002440:	9bad7dcf 	umull	x15, w14, w13
   100002444:	d367fdef 	lsr	x15, x15, #39
   100002448:	0b0f01ce 	add	w14, w14, w15
   10000244c:	9bad7d8f 	umull	x15, w12, w13
   100002450:	d367fdef 	lsr	x15, x15, #39
   100002454:	4b0f21ef 	sub	w15, w15, w15, lsl #8
   100002458:	0b0f018f 	add	w15, w12, w15
   10000245c:	531d718c 	lsl	w12, w12, #3
   100002460:	9bad7d8d 	umull	x13, w12, w13
   100002464:	d367fdad 	lsr	x13, x13, #39
   100002468:	4b0d21ad 	sub	w13, w13, w13, lsl #8
   10000246c:	53103dce 	lsl	w14, w14, #16
   100002470:	2a0f21ce 	orr	w14, w14, w15, lsl #8
   100002474:	0b0d018c 	add	w12, w12, w13
   100002478:	2a0c01cc 	orr	w12, w14, w12
   10000247c:	32081d8c 	orr	w12, w12, #0xff000000
   100002480:	b9000c4c 	str	w12, [x2, #12]
   100002484:	1e611004 	fmov	d4, #3.000000000000000000e+00
   100002488:	1e642060 	fcmp	d3, d4
   10000248c:	54000fe4 	b.mi	100002688 <__Z22getPixelColorOptimizedPdS_PN2sf5ColorE+0x564>  // b.first
   100002490:	5290102c 	mov	w12, #0x8081                	// #32897
   100002494:	72b0100c 	movk	w12, #0x8080, lsl #16
   100002498:	531e756d 	lsl	w13, w11, #2
   10000249c:	9bac7dae 	umull	x14, w13, w12
   1000024a0:	d367fdce 	lsr	x14, x14, #39
   1000024a4:	0b0e01ad 	add	w13, w13, w14
   1000024a8:	9bac7d6e 	umull	x14, w11, w12
   1000024ac:	d367fdce 	lsr	x14, x14, #39
   1000024b0:	4b0e21ce 	sub	w14, w14, w14, lsl #8
   1000024b4:	0b0e016e 	add	w14, w11, w14
   1000024b8:	531d716b 	lsl	w11, w11, #3
   1000024bc:	9bac7d6c 	umull	x12, w11, w12
   1000024c0:	d367fd8c 	lsr	x12, x12, #39
   1000024c4:	4b0c218c 	sub	w12, w12, w12, lsl #8
   1000024c8:	53103dad 	lsl	w13, w13, #16
   1000024cc:	2a0e21ad 	orr	w13, w13, w14, lsl #8
   1000024d0:	0b0c016b 	add	w11, w11, w12
   1000024d4:	2a0b01ab 	orr	w11, w13, w11
   1000024d8:	32081d6b 	orr	w11, w11, #0xff000000
   1000024dc:	b900104b 	str	w11, [x2, #16]
   1000024e0:	1e642000 	fcmp	d0, d4
   1000024e4:	54000da4 	b.mi	100002698 <__Z22getPixelColorOptimizedPdS_PN2sf5ColorE+0x574>  // b.first
   1000024e8:	5290102b 	mov	w11, #0x8081                	// #32897
   1000024ec:	72b0100b 	movk	w11, #0x8080, lsl #16
   1000024f0:	531e754c 	lsl	w12, w10, #2
   1000024f4:	9bab7d8d 	umull	x13, w12, w11
   1000024f8:	d367fdad 	lsr	x13, x13, #39
   1000024fc:	0b0d018c 	add	w12, w12, w13
   100002500:	9bab7d4d 	umull	x13, w10, w11
   100002504:	d367fdad 	lsr	x13, x13, #39
   100002508:	4b0d21ad 	sub	w13, w13, w13, lsl #8
   10000250c:	0b0d014d 	add	w13, w10, w13
   100002510:	531d714a 	lsl	w10, w10, #3
   100002514:	9bab7d4b 	umull	x11, w10, w11
   100002518:	d367fd6b 	lsr	x11, x11, #39
   10000251c:	4b0b216b 	sub	w11, w11, w11, lsl #8
   100002520:	53103d8c 	lsl	w12, w12, #16
   100002524:	2a0d218c 	orr	w12, w12, w13, lsl #8
   100002528:	0b0b014a 	add	w10, w10, w11
   10000252c:	2a0a018a 	orr	w10, w12, w10
   100002530:	32081d4a 	orr	w10, w10, #0xff000000
   100002534:	b900144a 	str	w10, [x2, #20]
   100002538:	1e611000 	fmov	d0, #3.000000000000000000e+00
   10000253c:	1e602040 	fcmp	d2, d0
   100002540:	54000b64 	b.mi	1000026ac <__Z22getPixelColorOptimizedPdS_PN2sf5ColorE+0x588>  // b.first
   100002544:	5290102a 	mov	w10, #0x8081                	// #32897
   100002548:	72b0100a 	movk	w10, #0x8080, lsl #16
   10000254c:	531e752b 	lsl	w11, w9, #2
   100002550:	9baa7d6c 	umull	x12, w11, w10
   100002554:	d367fd8c 	lsr	x12, x12, #39
   100002558:	0b0c016b 	add	w11, w11, w12
   10000255c:	9baa7d2c 	umull	x12, w9, w10
   100002560:	d367fd8c 	lsr	x12, x12, #39
   100002564:	4b0c218c 	sub	w12, w12, w12, lsl #8
   100002568:	0b0c012c 	add	w12, w9, w12
   10000256c:	531d7129 	lsl	w9, w9, #3
   100002570:	9baa7d2a 	umull	x10, w9, w10
   100002574:	d367fd4a 	lsr	x10, x10, #39
   100002578:	4b0a214a 	sub	w10, w10, w10, lsl #8
   10000257c:	53103d6b 	lsl	w11, w11, #16
   100002580:	2a0c216b 	orr	w11, w11, w12, lsl #8
   100002584:	0b0a0129 	add	w9, w9, w10
   100002588:	2a090169 	orr	w9, w11, w9
   10000258c:	32081d29 	orr	w9, w9, #0xff000000
   100002590:	b9001849 	str	w9, [x2, #24]
   100002594:	1e602020 	fcmp	d1, d0
   100002598:	54000924 	b.mi	1000026bc <__Z22getPixelColorOptimizedPdS_PN2sf5ColorE+0x598>  // b.first
   10000259c:	52901029 	mov	w9, #0x8081                	// #32897
   1000025a0:	72b01009 	movk	w9, #0x8080, lsl #16
   1000025a4:	531e750a 	lsl	w10, w8, #2
   1000025a8:	9ba97d4b 	umull	x11, w10, w9
   1000025ac:	d367fd6b 	lsr	x11, x11, #39
   1000025b0:	0b0b014a 	add	w10, w10, w11
   1000025b4:	9ba97d0b 	umull	x11, w8, w9
   1000025b8:	d367fd6b 	lsr	x11, x11, #39
   1000025bc:	4b0b216b 	sub	w11, w11, w11, lsl #8
   1000025c0:	0b0b010b 	add	w11, w8, w11
   1000025c4:	531d7108 	lsl	w8, w8, #3
   1000025c8:	9ba97d09 	umull	x9, w8, w9
   1000025cc:	d367fd29 	lsr	x9, x9, #39
   1000025d0:	4b092129 	sub	w9, w9, w9, lsl #8
   1000025d4:	53103d4a 	lsl	w10, w10, #16
   1000025d8:	2a0b214a 	orr	w10, w10, w11, lsl #8
   1000025dc:	0b090108 	add	w8, w8, w9
   1000025e0:	2a080148 	orr	w8, w10, w8
   1000025e4:	32081d08 	orr	w8, w8, #0xff000000
   1000025e8:	b9001c48 	str	w8, [x2, #28]
   1000025ec:	52800000 	mov	w0, #0x0                   	// #0
   1000025f0:	6d4123e9 	ldp	d9, d8, [sp, #16]
   1000025f4:	6cc22beb 	ldp	d11, d10, [sp], #32
   1000025f8:	d65f03c0 	ret
   1000025fc:	52901030 	mov	w16, #0x8081                	// #32897
   100002600:	72b01010 	movk	w16, #0x8080, lsl #16
   100002604:	531e75f1 	lsl	w17, w15, #2
   100002608:	9bb07e20 	umull	x0, w17, w16
   10000260c:	d367fc00 	lsr	x0, x0, #39
   100002610:	0b000231 	add	w17, w17, w0
   100002614:	9bb07de0 	umull	x0, w15, w16
   100002618:	d367fc00 	lsr	x0, x0, #39
   10000261c:	4b002000 	sub	w0, w0, w0, lsl #8
   100002620:	0b0001e0 	add	w0, w15, w0
   100002624:	531d71ef 	lsl	w15, w15, #3
   100002628:	9bb07df0 	umull	x16, w15, w16
   10000262c:	d367fe10 	lsr	x16, x16, #39
   100002630:	4b102210 	sub	w16, w16, w16, lsl #8
   100002634:	53103e31 	lsl	w17, w17, #16
   100002638:	2a002231 	orr	w17, w17, w0, lsl #8
   10000263c:	0b1001ef 	add	w15, w15, w16
   100002640:	2a0f022f 	orr	w15, w17, w15
   100002644:	32081def 	orr	w15, w15, #0xff000000
   100002648:	b900004f 	str	w15, [x2]
   10000264c:	1e6523a0 	fcmp	d29, d5
   100002650:	54ffe9a5 	b.pl	100002384 <__Z22getPixelColorOptimizedPdS_PN2sf5ColorE+0x260>  // b.nfrst
   100002654:	52bfe00e 	mov	w14, #0xff000000            	// #-16777216
   100002658:	b900044e 	str	w14, [x2, #4]
   10000265c:	1e6522a0 	fcmp	d21, d5
   100002660:	54ffebe5 	b.pl	1000023dc <__Z22getPixelColorOptimizedPdS_PN2sf5ColorE+0x2b8>  // b.nfrst
   100002664:	52bfe00d 	mov	w13, #0xff000000            	// #-16777216
   100002668:	b900084d 	str	w13, [x2, #8]
   10000266c:	1e652080 	fcmp	d4, d5
   100002670:	54ffee25 	b.pl	100002434 <__Z22getPixelColorOptimizedPdS_PN2sf5ColorE+0x310>  // b.nfrst
   100002674:	52bfe00c 	mov	w12, #0xff000000            	// #-16777216
   100002678:	b9000c4c 	str	w12, [x2, #12]
   10000267c:	1e611004 	fmov	d4, #3.000000000000000000e+00
   100002680:	1e642060 	fcmp	d3, d4
   100002684:	54fff065 	b.pl	100002490 <__Z22getPixelColorOptimizedPdS_PN2sf5ColorE+0x36c>  // b.nfrst
   100002688:	52bfe00b 	mov	w11, #0xff000000            	// #-16777216
   10000268c:	b900104b 	str	w11, [x2, #16]
   100002690:	1e642000 	fcmp	d0, d4
   100002694:	54fff2a5 	b.pl	1000024e8 <__Z22getPixelColorOptimizedPdS_PN2sf5ColorE+0x3c4>  // b.nfrst
   100002698:	52bfe00a 	mov	w10, #0xff000000            	// #-16777216
   10000269c:	b900144a 	str	w10, [x2, #20]
   1000026a0:	1e611000 	fmov	d0, #3.000000000000000000e+00
   1000026a4:	1e602040 	fcmp	d2, d0
   1000026a8:	54fff4e5 	b.pl	100002544 <__Z22getPixelColorOptimizedPdS_PN2sf5ColorE+0x420>  // b.nfrst
   1000026ac:	52bfe009 	mov	w9, #0xff000000            	// #-16777216
   1000026b0:	b9001849 	str	w9, [x2, #24]
   1000026b4:	1e602020 	fcmp	d1, d0
   1000026b8:	54fff725 	b.pl	10000259c <__Z22getPixelColorOptimizedPdS_PN2sf5ColorE+0x478>  // b.nfrst
   1000026bc:	52bfe008 	mov	w8, #0xff000000            	// #-16777216
   1000026c0:	b9001c48 	str	w8, [x2, #28]
   1000026c4:	52800000 	mov	w0, #0x0                   	// #0
   1000026c8:	6d4123e9 	ldp	d9, d8, [sp, #16]
   1000026cc:	6cc22beb 	ldp	d11, d10, [sp], #32
   1000026d0:	d65f03c0 	ret

00000001000026d4 <__Z23renderMandelbrotArmNeonPN2sf6VertexEPK16WindowParametersP10Mandelbrot>:
   1000026d4:	d2800008 	mov	x8, #0x0                   	// #0
   1000026d8:	d2800009 	mov	x9, #0x0                   	// #0
   1000026dc:	6d400042 	ldp	d2, d0, [x2]
   1000026e0:	1e7e1001 	fmov	d1, #-1.000000000000000000e+00
   1000026e4:	1e612800 	fadd	d0, d0, d1
   1000026e8:	6d410443 	ldp	d3, d1, [x2, #16]
   1000026ec:	1e612804 	fadd	d4, d0, d1
   1000026f0:	fd401041 	ldr	d1, [x2, #32]
   1000026f4:	1e611000 	fmov	d0, #3.000000000000000000e+00
   1000026f8:	1e600820 	fmul	d0, d1, d0
   1000026fc:	1e612821 	fadd	d1, d1, d1
   100002700:	1e6f1005 	fmov	d5, #1.500000000000000000e+00
   100002704:	1e652842 	fadd	d2, d2, d5
   100002708:	1e632842 	fadd	d2, d2, d3
   10000270c:	4e080483 	dup	v3.2d, v4.d[0]
   100002710:	d2c8000a 	mov	x10, #0x400000000000        	// #70368744177664
   100002714:	f2f80fea 	movk	x10, #0xc07f, lsl #48
   100002718:	9e670144 	fmov	d4, x10
   10000271c:	d2c8000a 	mov	x10, #0x400000000000        	// #70368744177664
   100002720:	f2e811ea 	movk	x10, #0x408f, lsl #48
   100002724:	9e670145 	fmov	d5, x10
   100002728:	d2f80f2a 	mov	x10, #0xc079000000000000    	// #-4577627546245398528
   10000272c:	4e080d46 	dup	v6.2d, x10
   100002730:	d2e8112a 	mov	x10, #0x4089000000000000    	// #4650248090236747776
   100002734:	4e080d47 	dup	v7.2d, x10
   100002738:	5280002a 	mov	w10, #0x1                   	// #1
   10000273c:	4e080d50 	dup	v16.2d, x10
   100002740:	6f00f511 	fmov	v17.2d, #3.000000000000000000e+00
   100002744:	5280200a 	mov	w10, #0x100                 	// #256
   100002748:	4e080d52 	dup	v18.2d, x10
   10000274c:	b201c3ea 	mov	x10, #0x8080808080808080    	// #-9187201950435737472
   100002750:	f290102a 	movk	x10, #0x8081
   100002754:	5280028b 	mov	w11, #0x14                  	// #20
   100002758:	14000004 	b	100002768 <__Z23renderMandelbrotArmNeonPN2sf6VertexEPK16WindowParametersP10Mandelbrot+0x94>
   10000275c:	91000529 	add	x9, x9, #0x1
   100002760:	f10fa13f 	cmp	x9, #0x3e8
   100002764:	54000c00 	b.eq	1000028e4 <__Z23renderMandelbrotArmNeonPN2sf6VertexEPK16WindowParametersP10Mandelbrot+0x210>  // b.none
   100002768:	d280000c 	mov	x12, #0x0                   	// #0
   10000276c:	9e630133 	ucvtf	d19, x9
   100002770:	1e642a73 	fadd	d19, d19, d4
   100002774:	1e651a73 	fdiv	d19, d19, d5
   100002778:	1e730813 	fmul	d19, d0, d19
   10000277c:	1e732853 	fadd	d19, d2, d19
   100002780:	4e080673 	dup	v19.2d, v19.d[0]
   100002784:	9e230134 	ucvtf	s20, x9
   100002788:	1400001e 	b	100002800 <__Z23renderMandelbrotArmNeonPN2sf6VertexEPK16WindowParametersP10Mandelbrot+0x12c>
   10000278c:	4e183eaf 	mov	x15, v21.d[1]
   100002790:	d37df1f0 	lsl	x16, x15, #3
   100002794:	9bca7df1 	umulh	x17, x15, x10
   100002798:	d3477e31 	ubfx	x17, x17, #7, #25
   10000279c:	4b112231 	sub	w17, w17, w17, lsl #8
   1000027a0:	0b1101f1 	add	w17, w15, w17
   1000027a4:	d37ef5ef 	lsl	x15, x15, #2
   1000027a8:	9bca7de1 	umulh	x1, x15, x10
   1000027ac:	0b411def 	add	w15, w15, w1, lsr #7
   1000027b0:	9bca7e01 	umulh	x1, x16, x10
   1000027b4:	d3477c21 	ubfx	x1, x1, #7, #25
   1000027b8:	4b012021 	sub	w1, w1, w1, lsl #8
   1000027bc:	53103def 	lsl	w15, w15, #16
   1000027c0:	2a1121ef 	orr	w15, w15, w17, lsl #8
   1000027c4:	0b010210 	add	w16, w16, w1
   1000027c8:	2a1001ef 	orr	w15, w15, w16
   1000027cc:	32081def 	orr	w15, w15, #0xff000000
   1000027d0:	9b0b0110 	madd	x16, x8, x11, x0
   1000027d4:	b9000a0e 	str	w14, [x16, #8]
   1000027d8:	b9001e0f 	str	w15, [x16, #28]
   1000027dc:	9e230195 	ucvtf	s21, x12
   1000027e0:	2d005614 	stp	s20, s21, [x16]
   1000027e4:	9e2301b5 	ucvtf	s21, x13
   1000027e8:	2d02d614 	stp	s20, s21, [x16, #20]
   1000027ec:	91000908 	add	x8, x8, #0x2
   1000027f0:	9100098d 	add	x13, x12, #0x2
   1000027f4:	f10c799f 	cmp	x12, #0x31e
   1000027f8:	aa0d03ec 	mov	x12, x13
   1000027fc:	54fffb02 	b.cs	10000275c <__Z23renderMandelbrotArmNeonPN2sf6VertexEPK16WindowParametersP10Mandelbrot+0x88>  // b.hs, b.nlast
   100002800:	9e630195 	ucvtf	d21, x12
   100002804:	b240018d 	orr	x13, x12, #0x1
   100002808:	9e6301b6 	ucvtf	d22, x13
   10000280c:	6e1806d5 	mov	v21.d[1], v22.d[0]
   100002810:	4e66d6b5 	fadd	v21.2d, v21.2d, v6.2d
   100002814:	6e67feb5 	fdiv	v21.2d, v21.2d, v7.2d
   100002818:	4fc192b5 	fmul	v21.2d, v21.2d, v1.d[0]
   10000281c:	4e75d477 	fadd	v23.2d, v3.2d, v21.2d
   100002820:	6f00e415 	movi	v21.2d, #0x0
   100002824:	4eb31e79 	mov	v25.16b, v19.16b
   100002828:	4eb71ef8 	mov	v24.16b, v23.16b
   10000282c:	6e79df36 	fmul	v22.2d, v25.2d, v25.2d
   100002830:	6e78df1a 	fmul	v26.2d, v24.2d, v24.2d
   100002834:	4efad6d6 	fsub	v22.2d, v22.2d, v26.2d
   100002838:	6e78df38 	fmul	v24.2d, v25.2d, v24.2d
   10000283c:	4e76d679 	fadd	v25.2d, v19.2d, v22.2d
   100002840:	4e78d716 	fadd	v22.2d, v24.2d, v24.2d
   100002844:	4e76d6f8 	fadd	v24.2d, v23.2d, v22.2d
   100002848:	6e79df36 	fmul	v22.2d, v25.2d, v25.2d
   10000284c:	6e78df1a 	fmul	v26.2d, v24.2d, v24.2d
   100002850:	4e7ad6d6 	fadd	v22.2d, v22.2d, v26.2d
   100002854:	6ee1fad6 	fsqrt	v22.2d, v22.2d
   100002858:	6ef6e63a 	fcmgt	v26.2d, v17.2d, v22.2d
   10000285c:	4e301f56 	and	v22.16b, v26.16b, v16.16b
   100002860:	6efa86b5 	sub	v21.2d, v21.2d, v26.2d
   100002864:	6ef5365a 	cmhi	v26.2d, v18.2d, v21.2d
   100002868:	4e3a1eda 	and	v26.16b, v22.16b, v26.16b
   10000286c:	5ef1bb5a 	addp	d26, v26.2d
   100002870:	9e66034e 	fmov	x14, d26
   100002874:	b5fffdce 	cbnz	x14, 10000282c <__Z23renderMandelbrotArmNeonPN2sf6VertexEPK16WindowParametersP10Mandelbrot+0x158>
   100002878:	9e6602ce 	fmov	x14, d22
   10000287c:	b40000ae 	cbz	x14, 100002890 <__Z23renderMandelbrotArmNeonPN2sf6VertexEPK16WindowParametersP10Mandelbrot+0x1bc>
   100002880:	52bfe00e 	mov	w14, #0xff000000            	// #-16777216
   100002884:	4e183ecf 	mov	x15, v22.d[1]
   100002888:	b50002af 	cbnz	x15, 1000028dc <__Z23renderMandelbrotArmNeonPN2sf6VertexEPK16WindowParametersP10Mandelbrot+0x208>
   10000288c:	17ffffc0 	b	10000278c <__Z23renderMandelbrotArmNeonPN2sf6VertexEPK16WindowParametersP10Mandelbrot+0xb8>
   100002890:	9e6602ae 	fmov	x14, d21
   100002894:	d37df1cf 	lsl	x15, x14, #3
   100002898:	9bca7dd0 	umulh	x16, x14, x10
   10000289c:	d3477e10 	ubfx	x16, x16, #7, #25
   1000028a0:	4b102210 	sub	w16, w16, w16, lsl #8
   1000028a4:	0b1001d0 	add	w16, w14, w16
   1000028a8:	d37ef5ce 	lsl	x14, x14, #2
   1000028ac:	9bca7dd1 	umulh	x17, x14, x10
   1000028b0:	0b511dce 	add	w14, w14, w17, lsr #7
   1000028b4:	9bca7df1 	umulh	x17, x15, x10
   1000028b8:	d3477e31 	ubfx	x17, x17, #7, #25
   1000028bc:	4b112231 	sub	w17, w17, w17, lsl #8
   1000028c0:	53103dce 	lsl	w14, w14, #16
   1000028c4:	2a1021ce 	orr	w14, w14, w16, lsl #8
   1000028c8:	0b1101ef 	add	w15, w15, w17
   1000028cc:	2a0f01ce 	orr	w14, w14, w15
   1000028d0:	32081dce 	orr	w14, w14, #0xff000000
   1000028d4:	4e183ecf 	mov	x15, v22.d[1]
   1000028d8:	b4fff5af 	cbz	x15, 10000278c <__Z23renderMandelbrotArmNeonPN2sf6VertexEPK16WindowParametersP10Mandelbrot+0xb8>
   1000028dc:	52bfe00f 	mov	w15, #0xff000000            	// #-16777216
   1000028e0:	17ffffbc 	b	1000027d0 <__Z23renderMandelbrotArmNeonPN2sf6VertexEPK16WindowParametersP10Mandelbrot+0xfc>
   1000028e4:	52800000 	mov	w0, #0x0                   	// #0
   1000028e8:	d65f03c0 	ret

00000001000028ec <__Z20getPixelColorArmNeonP19__simd128_float64_tS0_PN2sf5ColorE>:
   1000028ec:	3dc00002 	ldr	q2, [x0]
   1000028f0:	3dc00023 	ldr	q3, [x1]
   1000028f4:	6f00e400 	movi	v0.2d, #0x0
   1000028f8:	52800028 	mov	w8, #0x1                   	// #1
   1000028fc:	4e080d04 	dup	v4.2d, x8
   100002900:	6f00f505 	fmov	v5.2d, #3.000000000000000000e+00
   100002904:	52802008 	mov	w8, #0x100                 	// #256
   100002908:	4e080d06 	dup	v6.2d, x8
   10000290c:	4ea21c50 	mov	v16.16b, v2.16b
   100002910:	4ea31c67 	mov	v7.16b, v3.16b
   100002914:	6e70de01 	fmul	v1.2d, v16.2d, v16.2d
   100002918:	6e67dcf1 	fmul	v17.2d, v7.2d, v7.2d
   10000291c:	4ef1d421 	fsub	v1.2d, v1.2d, v17.2d
   100002920:	6e70dce7 	fmul	v7.2d, v7.2d, v16.2d
   100002924:	4e61d450 	fadd	v16.2d, v2.2d, v1.2d
   100002928:	4e67d4e1 	fadd	v1.2d, v7.2d, v7.2d
   10000292c:	4e61d467 	fadd	v7.2d, v3.2d, v1.2d
   100002930:	6e70de01 	fmul	v1.2d, v16.2d, v16.2d
   100002934:	6e67dcf1 	fmul	v17.2d, v7.2d, v7.2d
   100002938:	4e71d421 	fadd	v1.2d, v1.2d, v17.2d
   10000293c:	6ee1f821 	fsqrt	v1.2d, v1.2d
   100002940:	6ee1e4b1 	fcmgt	v17.2d, v5.2d, v1.2d
   100002944:	4e241e21 	and	v1.16b, v17.16b, v4.16b
   100002948:	6ef18400 	sub	v0.2d, v0.2d, v17.2d
   10000294c:	6ee034d1 	cmhi	v17.2d, v6.2d, v0.2d
   100002950:	4e311c31 	and	v17.16b, v1.16b, v17.16b
   100002954:	5ef1ba31 	addp	d17, v17.2d
   100002958:	9e660228 	fmov	x8, d17
   10000295c:	b5fffdc8 	cbnz	x8, 100002914 <__Z20getPixelColorArmNeonP19__simd128_float64_tS0_PN2sf5ColorE+0x28>
   100002960:	9e660028 	fmov	x8, d1
   100002964:	b4000128 	cbz	x8, 100002988 <__Z20getPixelColorArmNeonP19__simd128_float64_tS0_PN2sf5ColorE+0x9c>
   100002968:	52bfe008 	mov	w8, #0xff000000            	// #-16777216
   10000296c:	b9000048 	str	w8, [x2]
   100002970:	4e183c28 	mov	x8, v1.d[1]
   100002974:	b4000368 	cbz	x8, 1000029e0 <__Z20getPixelColorArmNeonP19__simd128_float64_tS0_PN2sf5ColorE+0xf4>
   100002978:	52bfe008 	mov	w8, #0xff000000            	// #-16777216
   10000297c:	b9000448 	str	w8, [x2, #4]
   100002980:	52800000 	mov	w0, #0x0                   	// #0
   100002984:	d65f03c0 	ret
   100002988:	9e660008 	fmov	x8, d0
   10000298c:	b201c3e9 	mov	x9, #0x8080808080808080    	// #-9187201950435737472
   100002990:	f2901029 	movk	x9, #0x8081
   100002994:	d37ef50a 	lsl	x10, x8, #2
   100002998:	9bc97d4b 	umulh	x11, x10, x9
   10000299c:	0b4b1d4a 	add	w10, w10, w11, lsr #7
   1000029a0:	9bc97d0b 	umulh	x11, x8, x9
   1000029a4:	d3477d6b 	ubfx	x11, x11, #7, #25
   1000029a8:	4b0b216b 	sub	w11, w11, w11, lsl #8
   1000029ac:	0b0b010b 	add	w11, w8, w11
   1000029b0:	d37df108 	lsl	x8, x8, #3
   1000029b4:	9bc97d09 	umulh	x9, x8, x9
   1000029b8:	d3477d29 	ubfx	x9, x9, #7, #25
   1000029bc:	4b092129 	sub	w9, w9, w9, lsl #8
   1000029c0:	53103d4a 	lsl	w10, w10, #16
   1000029c4:	2a0b214a 	orr	w10, w10, w11, lsl #8
   1000029c8:	0b090108 	add	w8, w8, w9
   1000029cc:	2a080148 	orr	w8, w10, w8
   1000029d0:	32081d08 	orr	w8, w8, #0xff000000
   1000029d4:	b9000048 	str	w8, [x2]
   1000029d8:	4e183c28 	mov	x8, v1.d[1]
   1000029dc:	b5fffce8 	cbnz	x8, 100002978 <__Z20getPixelColorArmNeonP19__simd128_float64_tS0_PN2sf5ColorE+0x8c>
   1000029e0:	4e183c08 	mov	x8, v0.d[1]
   1000029e4:	b201c3e9 	mov	x9, #0x8080808080808080    	// #-9187201950435737472
   1000029e8:	f2901029 	movk	x9, #0x8081
   1000029ec:	d37ef50a 	lsl	x10, x8, #2
   1000029f0:	9bc97d4b 	umulh	x11, x10, x9
   1000029f4:	0b4b1d4a 	add	w10, w10, w11, lsr #7
   1000029f8:	9bc97d0b 	umulh	x11, x8, x9
   1000029fc:	d3477d6b 	ubfx	x11, x11, #7, #25
   100002a00:	4b0b216b 	sub	w11, w11, w11, lsl #8
   100002a04:	0b0b010b 	add	w11, w8, w11
   100002a08:	d37df108 	lsl	x8, x8, #3
   100002a0c:	9bc97d09 	umulh	x9, x8, x9
   100002a10:	d3477d29 	ubfx	x9, x9, #7, #25
   100002a14:	4b092129 	sub	w9, w9, w9, lsl #8
   100002a18:	53103d4a 	lsl	w10, w10, #16
   100002a1c:	2a0b214a 	orr	w10, w10, w11, lsl #8
   100002a20:	0b090108 	add	w8, w8, w9
   100002a24:	2a080148 	orr	w8, w10, w8
   100002a28:	32081d08 	orr	w8, w8, #0xff000000
   100002a2c:	b9000448 	str	w8, [x2, #4]
   100002a30:	52800000 	mov	w0, #0x0                   	// #0
   100002a34:	d65f03c0 	ret

0000000100002a38 <__Z9windowCtrP16WindowParameters>:
   100002a38:	b0000008 	adrp	x8, 100003000 <__ZN2sf4FontD1Ev+0x50>
   100002a3c:	fd441900 	ldr	d0, [x8, #2096]
   100002a40:	fd001000 	str	d0, [x0, #32]
   100002a44:	5286a008 	mov	w8, #0x3500                	// #13568
   100002a48:	72a00188 	movk	w8, #0xc, lsl #16
   100002a4c:	b201e7e9 	mov	x9, #0x9999999999999999    	// #-7378697629483820647
   100002a50:	f2933349 	movk	x9, #0x999a
   100002a54:	f2e7f729 	movk	x9, #0x3fb9, lsl #48
   100002a58:	4e080d20 	dup	v0.2d, x9
   100002a5c:	b9002808 	str	w8, [x0, #40]
   100002a60:	b0000008 	adrp	x8, 100003000 <__ZN2sf4FontD1Ev+0x50>
   100002a64:	3dc21101 	ldr	q1, [x8, #2112]
   100002a68:	ad000400 	stp	q0, q1, [x0]
   100002a6c:	52800000 	mov	w0, #0x0                   	// #0
   100002a70:	d65f03c0 	ret

0000000100002a74 <__Z6appRunPN2sf12RenderWindowEPNS_6VertexEPK16WindowParametersP10Mandelbrot>:
   100002a74:	6db923e9 	stp	d9, d8, [sp, #-112]!
   100002a78:	a9016ffc 	stp	x28, x27, [sp, #16]
   100002a7c:	a90267fa 	stp	x26, x25, [sp, #32]
   100002a80:	a9035ff8 	stp	x24, x23, [sp, #48]
   100002a84:	a90457f6 	stp	x22, x21, [sp, #64]
   100002a88:	a9054ff4 	stp	x20, x19, [sp, #80]
   100002a8c:	a9067bfd 	stp	x29, x30, [sp, #96]
   100002a90:	910183fd 	add	x29, sp, #0x60
   100002a94:	d10883ff 	sub	sp, sp, #0x220
   100002a98:	aa0303f3 	mov	x19, x3
   100002a9c:	aa0203f4 	mov	x20, x2
   100002aa0:	aa0103f5 	mov	x21, x1
   100002aa4:	aa0003f6 	mov	x22, x0
   100002aa8:	94000314 	bl	1000036f8 <__Z10parseFlagsiPPcP10Mandelbrot+0x2d4>
   100002aac:	a9397fa0 	stp	x0, xzr, [x29, #-112]
   100002ab0:	a9047fff 	stp	xzr, xzr, [sp, #64]
   100002ab4:	f9002bff 	str	xzr, [sp, #80]
   100002ab8:	b0000001 	adrp	x1, 100003000 <__ZN2sf4FontD1Ev+0x50>
   100002abc:	91241c21 	add	x1, x1, #0x907
   100002ac0:	910103e0 	add	x0, sp, #0x40
   100002ac4:	91004c22 	add	x2, x1, #0x13
   100002ac8:	94000182 	bl	1000030d0 <__ZNSt3__112basic_stringIcNS_11char_traitsIcEENS_9allocatorIcEEE6appendB8ne190102IPKcLi0EEERS5_T_SA_>
   100002acc:	d10383a0 	sub	x0, x29, #0xe0
   100002ad0:	910103e1 	add	x1, sp, #0x40
   100002ad4:	940002d6 	bl	10000362c <__Z10parseFlagsiPPcP10Mandelbrot+0x208>
   100002ad8:	39c15fe8 	ldrsb	w8, [sp, #87]
   100002adc:	36f80068 	tbz	w8, #31, 100002ae8 <__Z6appRunPN2sf12RenderWindowEPNS_6VertexEPK16WindowParametersP10Mandelbrot+0x74>
   100002ae0:	f94023e0 	ldr	x0, [sp, #64]
   100002ae4:	9400030e 	bl	10000371c <__Z10parseFlagsiPPcP10Mandelbrot+0x2f8>
   100002ae8:	910043e0 	add	x0, sp, #0x10
   100002aec:	94000306 	bl	100003704 <__Z10parseFlagsiPPcP10Mandelbrot+0x2e0>
   100002af0:	b0000001 	adrp	x1, 100003000 <__ZN2sf4FontD1Ev+0x50>
   100002af4:	9123ec21 	add	x1, x1, #0x8fb
   100002af8:	9100a3e0 	add	x0, sp, #0x28
   100002afc:	910043e2 	add	x2, sp, #0x10
   100002b00:	940002e0 	bl	100003680 <__Z10parseFlagsiPPcP10Mandelbrot+0x25c>
   100002b04:	910103e0 	add	x0, sp, #0x40
   100002b08:	d10383a1 	sub	x1, x29, #0xe0
   100002b0c:	9100a3e2 	add	x2, sp, #0x28
   100002b10:	528003c3 	mov	w3, #0x1e                  	// #30
   100002b14:	940002d5 	bl	100003668 <__Z10parseFlagsiPPcP10Mandelbrot+0x244>
   100002b18:	39c0ffe8 	ldrsb	w8, [sp, #63]
   100002b1c:	36f80068 	tbz	w8, #31, 100002b28 <__Z6appRunPN2sf12RenderWindowEPNS_6VertexEPK16WindowParametersP10Mandelbrot+0xb4>
   100002b20:	f94017e0 	ldr	x0, [sp, #40]
   100002b24:	940002fe 	bl	10000371c <__Z10parseFlagsiPPcP10Mandelbrot+0x2f8>
   100002b28:	910043e0 	add	x0, sp, #0x10
   100002b2c:	940002f9 	bl	100003710 <__Z10parseFlagsiPPcP10Mandelbrot+0x2ec>
   100002b30:	910103e0 	add	x0, sp, #0x40
   100002b34:	52800301 	mov	w1, #0x18                  	// #24
   100002b38:	940002c3 	bl	100003644 <__Z10parseFlagsiPPcP10Mandelbrot+0x220>
   100002b3c:	910103e0 	add	x0, sp, #0x40
   100002b40:	32083fe1 	mov	w1, #0xff0000ff            	// #-16776961
   100002b44:	940002bd 	bl	100003638 <__Z10parseFlagsiPPcP10Mandelbrot+0x214>
   100002b48:	910103e0 	add	x0, sp, #0x40
   100002b4c:	52800021 	mov	w1, #0x1                   	// #1
   100002b50:	940002c0 	bl	100003650 <__Z10parseFlagsiPPcP10Mandelbrot+0x22c>
   100002b54:	528001e0 	mov	w0, #0xf                   	// #15
   100002b58:	52800021 	mov	w1, #0x1                   	// #1
   100002b5c:	94000305 	bl	100003770 <__Z10parseFlagsiPPcP10Mandelbrot+0x34c>
   100002b60:	aa0003f7 	mov	x23, x0
   100002b64:	d000001a 	adrp	x26, 100004000 <GCC_except_table7+0x724>
   100002b68:	9106035a 	add	x26, x26, #0x180
   100002b6c:	5284801b 	mov	w27, #0x2400                	// #9216
   100002b70:	72a92e9b 	movk	w27, #0x4974, lsl #16
   100002b74:	1e2e1008 	fmov	s8, #1.000000000000000000e+00
   100002b78:	d0000018 	adrp	x24, 100004000 <GCC_except_table7+0x724>
   100002b7c:	f9400318 	ldr	x24, [x24]
   100002b80:	b0000019 	adrp	x25, 100003000 <__ZN2sf4FontD1Ev+0x50>
   100002b84:	9123f339 	add	x25, x25, #0x8fc
   100002b88:	aa1603e0 	mov	x0, x22
   100002b8c:	940002cc 	bl	1000036bc <__Z10parseFlagsiPPcP10Mandelbrot+0x298>
   100002b90:	35000120 	cbnz	w0, 100002bb4 <__Z6appRunPN2sf12RenderWindowEPNS_6VertexEPK16WindowParametersP10Mandelbrot+0x140>
   100002b94:	1400007e 	b	100002d8c <__Z6appRunPN2sf12RenderWindowEPNS_6VertexEPK16WindowParametersP10Mandelbrot+0x318>
   100002b98:	fd400280 	ldr	d0, [x20]
   100002b9c:	fd400e81 	ldr	d1, [x20, #24]
   100002ba0:	fd401262 	ldr	d2, [x19, #32]
   100002ba4:	fd400a63 	ldr	d3, [x19, #16]
   100002ba8:	1e618800 	fnmul	d0, d0, d1
   100002bac:	1f420c00 	fmadd	d0, d0, d2, d3
   100002bb0:	fd000a60 	str	d0, [x19, #16]
   100002bb4:	910043e8 	add	x8, sp, #0x10
   100002bb8:	aa1603e0 	mov	x0, x22
   100002bbc:	9400028d 	bl	1000035f0 <__Z10parseFlagsiPPcP10Mandelbrot+0x1cc>
   100002bc0:	394093e8 	ldrb	w8, [sp, #36]
   100002bc4:	36000828 	tbz	w8, #0, 100002cc8 <__Z6appRunPN2sf12RenderWindowEPNS_6VertexEPK16WindowParametersP10Mandelbrot+0x254>
   100002bc8:	b94023e8 	ldr	w8, [sp, #32]
   100002bcc:	7100151f 	cmp	w8, #0x5
   100002bd0:	540000e0 	b.eq	100002bec <__Z6appRunPN2sf12RenderWindowEPNS_6VertexEPK16WindowParametersP10Mandelbrot+0x178>  // b.none
   100002bd4:	35ffff08 	cbnz	w8, 100002bb4 <__Z6appRunPN2sf12RenderWindowEPNS_6VertexEPK16WindowParametersP10Mandelbrot+0x140>
   100002bd8:	f94002c8 	ldr	x8, [x22]
   100002bdc:	f9401508 	ldr	x8, [x8, #40]
   100002be0:	aa1603e0 	mov	x0, x22
   100002be4:	d63f0100 	blr	x8
   100002be8:	17fffff3 	b	100002bb4 <__Z6appRunPN2sf12RenderWindowEPNS_6VertexEPK16WindowParametersP10Mandelbrot+0x140>
   100002bec:	b94017e8 	ldr	w8, [sp, #20]
   100002bf0:	7100251f 	cmp	w8, #0x9
   100002bf4:	540001cd 	b.le	100002c2c <__Z6appRunPN2sf12RenderWindowEPNS_6VertexEPK16WindowParametersP10Mandelbrot+0x1b8>
   100002bf8:	7100551f 	cmp	w8, #0x15
   100002bfc:	540002cc 	b.gt	100002c54 <__Z6appRunPN2sf12RenderWindowEPNS_6VertexEPK16WindowParametersP10Mandelbrot+0x1e0>
   100002c00:	7100291f 	cmp	w8, #0xa
   100002c04:	540003a0 	b.eq	100002c78 <__Z6appRunPN2sf12RenderWindowEPNS_6VertexEPK16WindowParametersP10Mandelbrot+0x204>  // b.none
   100002c08:	7100491f 	cmp	w8, #0x12
   100002c0c:	54fffd41 	b.ne	100002bb4 <__Z6appRunPN2sf12RenderWindowEPNS_6VertexEPK16WindowParametersP10Mandelbrot+0x140>  // b.any
   100002c10:	fd400280 	ldr	d0, [x20]
   100002c14:	fd400a81 	ldr	d1, [x20, #16]
   100002c18:	1e610800 	fmul	d0, d0, d1
   100002c1c:	6d418662 	ldp	d2, d1, [x19, #24]
   100002c20:	1f410800 	fmadd	d0, d0, d1, d2
   100002c24:	fd000e60 	str	d0, [x19, #24]
   100002c28:	17ffffe3 	b	100002bb4 <__Z6appRunPN2sf12RenderWindowEPNS_6VertexEPK16WindowParametersP10Mandelbrot+0x140>
   100002c2c:	34fffb68 	cbz	w8, 100002b98 <__Z6appRunPN2sf12RenderWindowEPNS_6VertexEPK16WindowParametersP10Mandelbrot+0x124>
   100002c30:	71000d1f 	cmp	w8, #0x3
   100002c34:	540003a0 	b.eq	100002ca8 <__Z6appRunPN2sf12RenderWindowEPNS_6VertexEPK16WindowParametersP10Mandelbrot+0x234>  // b.none
   100002c38:	7100251f 	cmp	w8, #0x9
   100002c3c:	54fffbc1 	b.ne	100002bb4 <__Z6appRunPN2sf12RenderWindowEPNS_6VertexEPK16WindowParametersP10Mandelbrot+0x140>  // b.any
   100002c40:	fd400680 	ldr	d0, [x20, #8]
   100002c44:	fd401261 	ldr	d1, [x19, #32]
   100002c48:	1f410400 	fmadd	d0, d0, d1, d1
   100002c4c:	fd001260 	str	d0, [x19, #32]
   100002c50:	17ffffd9 	b	100002bb4 <__Z6appRunPN2sf12RenderWindowEPNS_6VertexEPK16WindowParametersP10Mandelbrot+0x140>
   100002c54:	7100591f 	cmp	w8, #0x16
   100002c58:	540001a0 	b.eq	100002c8c <__Z6appRunPN2sf12RenderWindowEPNS_6VertexEPK16WindowParametersP10Mandelbrot+0x218>  // b.none
   100002c5c:	7100951f 	cmp	w8, #0x25
   100002c60:	54fffaa1 	b.ne	100002bb4 <__Z6appRunPN2sf12RenderWindowEPNS_6VertexEPK16WindowParametersP10Mandelbrot+0x140>  // b.any
   100002c64:	f94002c8 	ldr	x8, [x22]
   100002c68:	f9401508 	ldr	x8, [x8, #40]
   100002c6c:	aa1603e0 	mov	x0, x22
   100002c70:	d63f0100 	blr	x8
   100002c74:	17ffffd0 	b	100002bb4 <__Z6appRunPN2sf12RenderWindowEPNS_6VertexEPK16WindowParametersP10Mandelbrot+0x140>
   100002c78:	fd400680 	ldr	d0, [x20, #8]
   100002c7c:	fd401261 	ldr	d1, [x19, #32]
   100002c80:	1f418400 	fmsub	d0, d0, d1, d1
   100002c84:	fd001260 	str	d0, [x19, #32]
   100002c88:	17ffffcb 	b	100002bb4 <__Z6appRunPN2sf12RenderWindowEPNS_6VertexEPK16WindowParametersP10Mandelbrot+0x140>
   100002c8c:	fd400280 	ldr	d0, [x20]
   100002c90:	fd400a81 	ldr	d1, [x20, #16]
   100002c94:	6d418a63 	ldp	d3, d2, [x19, #24]
   100002c98:	1e618800 	fnmul	d0, d0, d1
   100002c9c:	1f420c00 	fmadd	d0, d0, d2, d3
   100002ca0:	fd000e60 	str	d0, [x19, #24]
   100002ca4:	17ffffc4 	b	100002bb4 <__Z6appRunPN2sf12RenderWindowEPNS_6VertexEPK16WindowParametersP10Mandelbrot+0x140>
   100002ca8:	fd400280 	ldr	d0, [x20]
   100002cac:	fd400e81 	ldr	d1, [x20, #24]
   100002cb0:	1e610800 	fmul	d0, d0, d1
   100002cb4:	fd401261 	ldr	d1, [x19, #32]
   100002cb8:	fd400a62 	ldr	d2, [x19, #16]
   100002cbc:	1f410800 	fmadd	d0, d0, d1, d2
   100002cc0:	fd000a60 	str	d0, [x19, #16]
   100002cc4:	17ffffbc 	b	100002bb4 <__Z6appRunPN2sf12RenderWindowEPNS_6VertexEPK16WindowParametersP10Mandelbrot+0x140>
   100002cc8:	910122c0 	add	x0, x22, #0x48
   100002ccc:	52bfe001 	mov	w1, #0xff000000            	// #-16777216
   100002cd0:	94000251 	bl	100003614 <__Z10parseFlagsiPPcP10Mandelbrot+0x1f0>
   100002cd4:	b9803668 	ldrsw	x8, [x19, #52]
   100002cd8:	f8687b48 	ldr	x8, [x26, x8, lsl #3]
   100002cdc:	aa1503e0 	mov	x0, x21
   100002ce0:	aa1403e1 	mov	x1, x20
   100002ce4:	aa1303e2 	mov	x2, x19
   100002ce8:	d63f0100 	blr	x8
   100002cec:	d101c3a0 	sub	x0, x29, #0x70
   100002cf0:	94000261 	bl	100003674 <__Z10parseFlagsiPPcP10Mandelbrot+0x250>
   100002cf4:	9e220000 	scvtf	s0, x0
   100002cf8:	1e270361 	fmov	s1, w27
   100002cfc:	1e211800 	fdiv	s0, s0, s1
   100002d00:	1e201900 	fdiv	s0, s8, s0
   100002d04:	1e22c000 	fcvt	d0, s0
   100002d08:	fd0003e0 	str	d0, [sp]
   100002d0c:	aa1703e0 	mov	x0, x23
   100002d10:	528001e1 	mov	w1, #0xf                   	// #15
   100002d14:	aa1903e2 	mov	x2, x25
   100002d18:	940002a5 	bl	1000037ac <__Z10parseFlagsiPPcP10Mandelbrot+0x388>
   100002d1c:	910023e0 	add	x0, sp, #0x8
   100002d20:	94000279 	bl	100003704 <__Z10parseFlagsiPPcP10Mandelbrot+0x2e0>
   100002d24:	910043e0 	add	x0, sp, #0x10
   100002d28:	910023e2 	add	x2, sp, #0x8
   100002d2c:	aa1703e1 	mov	x1, x23
   100002d30:	94000254 	bl	100003680 <__Z10parseFlagsiPPcP10Mandelbrot+0x25c>
   100002d34:	910103e0 	add	x0, sp, #0x40
   100002d38:	910043e1 	add	x1, sp, #0x10
   100002d3c:	94000248 	bl	10000365c <__Z10parseFlagsiPPcP10Mandelbrot+0x238>
   100002d40:	39c09fe8 	ldrsb	w8, [sp, #39]
   100002d44:	36f80068 	tbz	w8, #31, 100002d50 <__Z6appRunPN2sf12RenderWindowEPNS_6VertexEPK16WindowParametersP10Mandelbrot+0x2dc>
   100002d48:	f9400be0 	ldr	x0, [sp, #16]
   100002d4c:	94000274 	bl	10000371c <__Z10parseFlagsiPPcP10Mandelbrot+0x2f8>
   100002d50:	910023e0 	add	x0, sp, #0x8
   100002d54:	9400026f 	bl	100003710 <__Z10parseFlagsiPPcP10Mandelbrot+0x2ec>
   100002d58:	b9402a82 	ldr	w2, [x20, #40]
   100002d5c:	910122c0 	add	x0, x22, #0x48
   100002d60:	aa1503e1 	mov	x1, x21
   100002d64:	52800003 	mov	w3, #0x0                   	// #0
   100002d68:	aa1803e4 	mov	x4, x24
   100002d6c:	94000224 	bl	1000035fc <__Z10parseFlagsiPPcP10Mandelbrot+0x1d8>
   100002d70:	910122c0 	add	x0, x22, #0x48
   100002d74:	910103e1 	add	x1, sp, #0x40
   100002d78:	aa1803e2 	mov	x2, x24
   100002d7c:	94000223 	bl	100003608 <__Z10parseFlagsiPPcP10Mandelbrot+0x1e4>
   100002d80:	aa1603e0 	mov	x0, x22
   100002d84:	94000242 	bl	10000368c <__Z10parseFlagsiPPcP10Mandelbrot+0x268>
   100002d88:	17ffff80 	b	100002b88 <__Z6appRunPN2sf12RenderWindowEPNS_6VertexEPK16WindowParametersP10Mandelbrot+0x114>
   100002d8c:	d0000008 	adrp	x8, 100004000 <GCC_except_table7+0x724>
   100002d90:	f9403508 	ldr	x8, [x8, #104]
   100002d94:	91004109 	add	x9, x8, #0x10
   100002d98:	9100e108 	add	x8, x8, #0x38
   100002d9c:	a90423e9 	stp	x9, x8, [sp, #64]
   100002da0:	d0000008 	adrp	x8, 100004000 <GCC_except_table7+0x724>
   100002da4:	f9403108 	ldr	x8, [x8, #96]
   100002da8:	91004113 	add	x19, x8, #0x10
   100002dac:	f900aff3 	str	x19, [sp, #344]
   100002db0:	f940b3e0 	ldr	x0, [sp, #352]
   100002db4:	b4000060 	cbz	x0, 100002dc0 <__Z6appRunPN2sf12RenderWindowEPNS_6VertexEPK16WindowParametersP10Mandelbrot+0x34c>
   100002db8:	f900b7e0 	str	x0, [sp, #360]
   100002dbc:	94000258 	bl	10000371c <__Z10parseFlagsiPPcP10Mandelbrot+0x2f8>
   100002dc0:	f9009bf3 	str	x19, [sp, #304]
   100002dc4:	f9409fe0 	ldr	x0, [sp, #312]
   100002dc8:	b4000060 	cbz	x0, 100002dd4 <__Z6appRunPN2sf12RenderWindowEPNS_6VertexEPK16WindowParametersP10Mandelbrot+0x360>
   100002dcc:	f900a3e0 	str	x0, [sp, #320]
   100002dd0:	94000253 	bl	10000371c <__Z10parseFlagsiPPcP10Mandelbrot+0x2f8>
   100002dd4:	39c41fe8 	ldrsb	w8, [sp, #263]
   100002dd8:	36f80068 	tbz	w8, #31, 100002de4 <__Z6appRunPN2sf12RenderWindowEPNS_6VertexEPK16WindowParametersP10Mandelbrot+0x370>
   100002ddc:	f9407be0 	ldr	x0, [sp, #240]
   100002de0:	9400024f 	bl	10000371c <__Z10parseFlagsiPPcP10Mandelbrot+0x2f8>
   100002de4:	f85783a0 	ldur	x0, [x29, #-136]
   100002de8:	b4000060 	cbz	x0, 100002df4 <__Z6appRunPN2sf12RenderWindowEPNS_6VertexEPK16WindowParametersP10Mandelbrot+0x380>
   100002dec:	f81803a0 	stur	x0, [x29, #-128]
   100002df0:	9400024b 	bl	10000371c <__Z10parseFlagsiPPcP10Mandelbrot+0x2f8>
   100002df4:	d10383a8 	sub	x8, x29, #0xe0
   100002df8:	9100c100 	add	x0, x8, #0x30
   100002dfc:	9400008f 	bl	100003038 <__ZNSt3__112__hash_tableINS_17__hash_value_typeIjN2sf4Font4PageEEENS_22__unordered_map_hasherIjS5_NS_4hashIjEENS_8equal_toIjEELb1EEENS_21__unordered_map_equalIjS5_SA_S8_Lb1EEENS_9allocatorIS5_EEED2Ev>
   100002e00:	38d4f3a8 	ldursb	w8, [x29, #-177]
   100002e04:	36f80068 	tbz	w8, #31, 100002e10 <__Z6appRunPN2sf12RenderWindowEPNS_6VertexEPK16WindowParametersP10Mandelbrot+0x39c>
   100002e08:	f85383a0 	ldur	x0, [x29, #-200]
   100002e0c:	94000244 	bl	10000371c <__Z10parseFlagsiPPcP10Mandelbrot+0x2f8>
   100002e10:	f85283b3 	ldur	x19, [x29, #-216]
   100002e14:	b4000173 	cbz	x19, 100002e40 <__Z6appRunPN2sf12RenderWindowEPNS_6VertexEPK16WindowParametersP10Mandelbrot+0x3cc>
   100002e18:	91002268 	add	x8, x19, #0x8
   100002e1c:	92800009 	mov	x9, #0xffffffffffffffff    	// #-1
   100002e20:	f8e90108 	ldaddal	x9, x8, [x8]
   100002e24:	b50000e8 	cbnz	x8, 100002e40 <__Z6appRunPN2sf12RenderWindowEPNS_6VertexEPK16WindowParametersP10Mandelbrot+0x3cc>
   100002e28:	f9400268 	ldr	x8, [x19]
   100002e2c:	f9400908 	ldr	x8, [x8, #16]
   100002e30:	aa1303e0 	mov	x0, x19
   100002e34:	d63f0100 	blr	x8
   100002e38:	aa1303e0 	mov	x0, x19
   100002e3c:	9400022c 	bl	1000036ec <__Z10parseFlagsiPPcP10Mandelbrot+0x2c8>
   100002e40:	52800000 	mov	w0, #0x0                   	// #0
   100002e44:	910883ff 	add	sp, sp, #0x220
   100002e48:	a9467bfd 	ldp	x29, x30, [sp, #96]
   100002e4c:	a9454ff4 	ldp	x20, x19, [sp, #80]
   100002e50:	a94457f6 	ldp	x22, x21, [sp, #64]
   100002e54:	a9435ff8 	ldp	x24, x23, [sp, #48]
   100002e58:	a94267fa 	ldp	x26, x25, [sp, #32]
   100002e5c:	a9416ffc 	ldp	x28, x27, [sp, #16]
   100002e60:	6cc723e9 	ldp	d9, d8, [sp], #112
   100002e64:	d65f03c0 	ret
   100002e68:	aa0003f3 	mov	x19, x0
   100002e6c:	39c0ffe8 	ldrsb	w8, [sp, #63]
   100002e70:	36f800a8 	tbz	w8, #31, 100002e84 <__Z6appRunPN2sf12RenderWindowEPNS_6VertexEPK16WindowParametersP10Mandelbrot+0x410>
   100002e74:	f94017e0 	ldr	x0, [sp, #40]
   100002e78:	94000229 	bl	10000371c <__Z10parseFlagsiPPcP10Mandelbrot+0x2f8>
   100002e7c:	14000002 	b	100002e84 <__Z6appRunPN2sf12RenderWindowEPNS_6VertexEPK16WindowParametersP10Mandelbrot+0x410>
   100002e80:	aa0003f3 	mov	x19, x0
   100002e84:	910043e0 	add	x0, sp, #0x10
   100002e88:	94000222 	bl	100003710 <__Z10parseFlagsiPPcP10Mandelbrot+0x2ec>
   100002e8c:	d10383a0 	sub	x0, x29, #0xe0
   100002e90:	94000048 	bl	100002fb0 <__ZN2sf4FontD1Ev>
   100002e94:	aa1303e0 	mov	x0, x19
   100002e98:	940001d3 	bl	1000035e4 <__Z10parseFlagsiPPcP10Mandelbrot+0x1c0>
   100002e9c:	14000001 	b	100002ea0 <__Z6appRunPN2sf12RenderWindowEPNS_6VertexEPK16WindowParametersP10Mandelbrot+0x42c>
   100002ea0:	aa0003f3 	mov	x19, x0
   100002ea4:	39c15fe8 	ldrsb	w8, [sp, #87]
   100002ea8:	36f80068 	tbz	w8, #31, 100002eb4 <__Z6appRunPN2sf12RenderWindowEPNS_6VertexEPK16WindowParametersP10Mandelbrot+0x440>
   100002eac:	f94023e0 	ldr	x0, [sp, #64]
   100002eb0:	9400021b 	bl	10000371c <__Z10parseFlagsiPPcP10Mandelbrot+0x2f8>
   100002eb4:	aa1303e0 	mov	x0, x19
   100002eb8:	940001cb 	bl	1000035e4 <__Z10parseFlagsiPPcP10Mandelbrot+0x1c0>
   100002ebc:	14000014 	b	100002f0c <__Z6appRunPN2sf12RenderWindowEPNS_6VertexEPK16WindowParametersP10Mandelbrot+0x498>
   100002ec0:	14000013 	b	100002f0c <__Z6appRunPN2sf12RenderWindowEPNS_6VertexEPK16WindowParametersP10Mandelbrot+0x498>
   100002ec4:	aa0003f3 	mov	x19, x0
   100002ec8:	39c09fe8 	ldrsb	w8, [sp, #39]
   100002ecc:	36f800a8 	tbz	w8, #31, 100002ee0 <__Z6appRunPN2sf12RenderWindowEPNS_6VertexEPK16WindowParametersP10Mandelbrot+0x46c>
   100002ed0:	f9400be0 	ldr	x0, [sp, #16]
   100002ed4:	94000212 	bl	10000371c <__Z10parseFlagsiPPcP10Mandelbrot+0x2f8>
   100002ed8:	14000002 	b	100002ee0 <__Z6appRunPN2sf12RenderWindowEPNS_6VertexEPK16WindowParametersP10Mandelbrot+0x46c>
   100002edc:	aa0003f3 	mov	x19, x0
   100002ee0:	910023e0 	add	x0, sp, #0x8
   100002ee4:	9400020b 	bl	100003710 <__Z10parseFlagsiPPcP10Mandelbrot+0x2ec>
   100002ee8:	910103e0 	add	x0, sp, #0x40
   100002eec:	9400000f 	bl	100002f28 <__ZN2sf4TextD1Ev>
   100002ef0:	d10383a0 	sub	x0, x29, #0xe0
   100002ef4:	9400002f 	bl	100002fb0 <__ZN2sf4FontD1Ev>
   100002ef8:	aa1303e0 	mov	x0, x19
   100002efc:	940001ba 	bl	1000035e4 <__Z10parseFlagsiPPcP10Mandelbrot+0x1c0>
   100002f00:	14000003 	b	100002f0c <__Z6appRunPN2sf12RenderWindowEPNS_6VertexEPK16WindowParametersP10Mandelbrot+0x498>
   100002f04:	14000002 	b	100002f0c <__Z6appRunPN2sf12RenderWindowEPNS_6VertexEPK16WindowParametersP10Mandelbrot+0x498>
   100002f08:	14000001 	b	100002f0c <__Z6appRunPN2sf12RenderWindowEPNS_6VertexEPK16WindowParametersP10Mandelbrot+0x498>
   100002f0c:	aa0003f3 	mov	x19, x0
   100002f10:	910103e0 	add	x0, sp, #0x40
   100002f14:	94000005 	bl	100002f28 <__ZN2sf4TextD1Ev>
   100002f18:	d10383a0 	sub	x0, x29, #0xe0
   100002f1c:	94000025 	bl	100002fb0 <__ZN2sf4FontD1Ev>
   100002f20:	aa1303e0 	mov	x0, x19
   100002f24:	940001b0 	bl	1000035e4 <__Z10parseFlagsiPPcP10Mandelbrot+0x1c0>

0000000100002f28 <__ZN2sf4TextD1Ev>:
   100002f28:	a9be4ff4 	stp	x20, x19, [sp, #-32]!
   100002f2c:	a9017bfd 	stp	x29, x30, [sp, #16]
   100002f30:	910043fd 	add	x29, sp, #0x10
   100002f34:	aa0003f3 	mov	x19, x0
   100002f38:	d0000008 	adrp	x8, 100004000 <GCC_except_table7+0x724>
   100002f3c:	f9403508 	ldr	x8, [x8, #104]
   100002f40:	91004109 	add	x9, x8, #0x10
   100002f44:	9100e108 	add	x8, x8, #0x38
   100002f48:	a9002009 	stp	x9, x8, [x0]
   100002f4c:	d0000008 	adrp	x8, 100004000 <GCC_except_table7+0x724>
   100002f50:	f9403108 	ldr	x8, [x8, #96]
   100002f54:	91004114 	add	x20, x8, #0x10
   100002f58:	f9008c14 	str	x20, [x0, #280]
   100002f5c:	f9409000 	ldr	x0, [x0, #288]
   100002f60:	b4000060 	cbz	x0, 100002f6c <__ZN2sf4TextD1Ev+0x44>
   100002f64:	f9009660 	str	x0, [x19, #296]
   100002f68:	940001ed 	bl	10000371c <__Z10parseFlagsiPPcP10Mandelbrot+0x2f8>
   100002f6c:	f9007a74 	str	x20, [x19, #240]
   100002f70:	f9407e60 	ldr	x0, [x19, #248]
   100002f74:	b4000060 	cbz	x0, 100002f80 <__ZN2sf4TextD1Ev+0x58>
   100002f78:	f9008260 	str	x0, [x19, #256]
   100002f7c:	940001e8 	bl	10000371c <__Z10parseFlagsiPPcP10Mandelbrot+0x2f8>
   100002f80:	39c31e68 	ldrsb	w8, [x19, #199]
   100002f84:	37f800a8 	tbnz	w8, #31, 100002f98 <__ZN2sf4TextD1Ev+0x70>
   100002f88:	aa1303e0 	mov	x0, x19
   100002f8c:	a9417bfd 	ldp	x29, x30, [sp, #16]
   100002f90:	a8c24ff4 	ldp	x20, x19, [sp], #32
   100002f94:	d65f03c0 	ret
   100002f98:	f9405a60 	ldr	x0, [x19, #176]
   100002f9c:	940001e0 	bl	10000371c <__Z10parseFlagsiPPcP10Mandelbrot+0x2f8>
   100002fa0:	aa1303e0 	mov	x0, x19
   100002fa4:	a9417bfd 	ldp	x29, x30, [sp, #16]
   100002fa8:	a8c24ff4 	ldp	x20, x19, [sp], #32
   100002fac:	d65f03c0 	ret

0000000100002fb0 <__ZN2sf4FontD1Ev>:
   100002fb0:	a9be4ff4 	stp	x20, x19, [sp, #-32]!
   100002fb4:	a9017bfd 	stp	x29, x30, [sp, #16]
   100002fb8:	910043fd 	add	x29, sp, #0x10
   100002fbc:	aa0003f3 	mov	x19, x0
   100002fc0:	f9402c00 	ldr	x0, [x0, #88]
   100002fc4:	b4000060 	cbz	x0, 100002fd0 <__ZN2sf4FontD1Ev+0x20>
   100002fc8:	f9003260 	str	x0, [x19, #96]
   100002fcc:	940001d4 	bl	10000371c <__Z10parseFlagsiPPcP10Mandelbrot+0x2f8>
   100002fd0:	9100c260 	add	x0, x19, #0x30
   100002fd4:	94000019 	bl	100003038 <__ZNSt3__112__hash_tableINS_17__hash_value_typeIjN2sf4Font4PageEEENS_22__unordered_map_hasherIjS5_NS_4hashIjEENS_8equal_toIjEELb1EEENS_21__unordered_map_equalIjS5_SA_S8_Lb1EEENS_9allocatorIS5_EEED2Ev>
   100002fd8:	39c0be68 	ldrsb	w8, [x19, #47]
   100002fdc:	36f80068 	tbz	w8, #31, 100002fe8 <__ZN2sf4FontD1Ev+0x38>
   100002fe0:	f9400e60 	ldr	x0, [x19, #24]
   100002fe4:	940001ce 	bl	10000371c <__Z10parseFlagsiPPcP10Mandelbrot+0x2f8>
   100002fe8:	f9400674 	ldr	x20, [x19, #8]
   100002fec:	b40000b4 	cbz	x20, 100003000 <__ZN2sf4FontD1Ev+0x50>
   100002ff0:	91002288 	add	x8, x20, #0x8
   100002ff4:	92800009 	mov	x9, #0xffffffffffffffff    	// #-1
   100002ff8:	f8e90108 	ldaddal	x9, x8, [x8]
   100002ffc:	b40000a8 	cbz	x8, 100003010 <__ZN2sf4FontD1Ev+0x60>
   100003000:	aa1303e0 	mov	x0, x19
   100003004:	a9417bfd 	ldp	x29, x30, [sp, #16]
   100003008:	a8c24ff4 	ldp	x20, x19, [sp], #32
   10000300c:	d65f03c0 	ret
   100003010:	f9400288 	ldr	x8, [x20]
   100003014:	f9400908 	ldr	x8, [x8, #16]
   100003018:	aa1403e0 	mov	x0, x20
   10000301c:	d63f0100 	blr	x8
   100003020:	aa1403e0 	mov	x0, x20
   100003024:	940001b2 	bl	1000036ec <__Z10parseFlagsiPPcP10Mandelbrot+0x2c8>
   100003028:	aa1303e0 	mov	x0, x19
   10000302c:	a9417bfd 	ldp	x29, x30, [sp, #16]
   100003030:	a8c24ff4 	ldp	x20, x19, [sp], #32
   100003034:	d65f03c0 	ret

0000000100003038 <__ZNSt3__112__hash_tableINS_17__hash_value_typeIjN2sf4Font4PageEEENS_22__unordered_map_hasherIjS5_NS_4hashIjEENS_8equal_toIjEELb1EEENS_21__unordered_map_equalIjS5_SA_S8_Lb1EEENS_9allocatorIS5_EEED2Ev>:
   100003038:	a9bd57f6 	stp	x22, x21, [sp, #-48]!
   10000303c:	a9014ff4 	stp	x20, x19, [sp, #16]
   100003040:	a9027bfd 	stp	x29, x30, [sp, #32]
   100003044:	910083fd 	add	x29, sp, #0x20
   100003048:	aa0003f3 	mov	x19, x0
   10000304c:	f9400814 	ldr	x20, [x0, #16]
   100003050:	b50001d4 	cbnz	x20, 100003088 <__ZNSt3__112__hash_tableINS_17__hash_value_typeIjN2sf4Font4PageEEENS_22__unordered_map_hasherIjS5_NS_4hashIjEENS_8equal_toIjEELb1EEENS_21__unordered_map_equalIjS5_SA_S8_Lb1EEENS_9allocatorIS5_EEED2Ev+0x50>
   100003054:	f9400260 	ldr	x0, [x19]
   100003058:	f900027f 	str	xzr, [x19]
   10000305c:	b4000040 	cbz	x0, 100003064 <__ZNSt3__112__hash_tableINS_17__hash_value_typeIjN2sf4Font4PageEEENS_22__unordered_map_hasherIjS5_NS_4hashIjEENS_8equal_toIjEELb1EEENS_21__unordered_map_equalIjS5_SA_S8_Lb1EEENS_9allocatorIS5_EEED2Ev+0x2c>
   100003060:	940001af 	bl	10000371c <__Z10parseFlagsiPPcP10Mandelbrot+0x2f8>
   100003064:	aa1303e0 	mov	x0, x19
   100003068:	a9427bfd 	ldp	x29, x30, [sp, #32]
   10000306c:	a9414ff4 	ldp	x20, x19, [sp, #16]
   100003070:	a8c357f6 	ldp	x22, x21, [sp], #48
   100003074:	d65f03c0 	ret
   100003078:	aa1403e0 	mov	x0, x20
   10000307c:	940001a8 	bl	10000371c <__Z10parseFlagsiPPcP10Mandelbrot+0x2f8>
   100003080:	aa1503f4 	mov	x20, x21
   100003084:	b4fffe95 	cbz	x21, 100003054 <__ZNSt3__112__hash_tableINS_17__hash_value_typeIjN2sf4Font4PageEEENS_22__unordered_map_hasherIjS5_NS_4hashIjEENS_8equal_toIjEELb1EEENS_21__unordered_map_equalIjS5_SA_S8_Lb1EEENS_9allocatorIS5_EEED2Ev+0x1c>
   100003088:	f9400295 	ldr	x21, [x20]
   10000308c:	f9404280 	ldr	x0, [x20, #128]
   100003090:	b4000060 	cbz	x0, 10000309c <__ZNSt3__112__hash_tableINS_17__hash_value_typeIjN2sf4Font4PageEEENS_22__unordered_map_hasherIjS5_NS_4hashIjEENS_8equal_toIjEELb1EEENS_21__unordered_map_equalIjS5_SA_S8_Lb1EEENS_9allocatorIS5_EEED2Ev+0x64>
   100003094:	f9004680 	str	x0, [x20, #136]
   100003098:	940001a1 	bl	10000371c <__Z10parseFlagsiPPcP10Mandelbrot+0x2f8>
   10000309c:	91010280 	add	x0, x20, #0x40
   1000030a0:	94000181 	bl	1000036a4 <__Z10parseFlagsiPPcP10Mandelbrot+0x280>
   1000030a4:	f9401680 	ldr	x0, [x20, #40]
   1000030a8:	b40000a0 	cbz	x0, 1000030bc <__ZNSt3__112__hash_tableINS_17__hash_value_typeIjN2sf4Font4PageEEENS_22__unordered_map_hasherIjS5_NS_4hashIjEENS_8equal_toIjEELb1EEENS_21__unordered_map_equalIjS5_SA_S8_Lb1EEENS_9allocatorIS5_EEED2Ev+0x84>
   1000030ac:	f9400016 	ldr	x22, [x0]
   1000030b0:	9400019b 	bl	10000371c <__Z10parseFlagsiPPcP10Mandelbrot+0x2f8>
   1000030b4:	aa1603e0 	mov	x0, x22
   1000030b8:	b5ffffb6 	cbnz	x22, 1000030ac <__ZNSt3__112__hash_tableINS_17__hash_value_typeIjN2sf4Font4PageEEENS_22__unordered_map_hasherIjS5_NS_4hashIjEENS_8equal_toIjEELb1EEENS_21__unordered_map_equalIjS5_SA_S8_Lb1EEENS_9allocatorIS5_EEED2Ev+0x74>
   1000030bc:	f9400e80 	ldr	x0, [x20, #24]
   1000030c0:	f9000e9f 	str	xzr, [x20, #24]
   1000030c4:	b4fffda0 	cbz	x0, 100003078 <__ZNSt3__112__hash_tableINS_17__hash_value_typeIjN2sf4Font4PageEEENS_22__unordered_map_hasherIjS5_NS_4hashIjEENS_8equal_toIjEELb1EEENS_21__unordered_map_equalIjS5_SA_S8_Lb1EEENS_9allocatorIS5_EEED2Ev+0x40>
   1000030c8:	94000195 	bl	10000371c <__Z10parseFlagsiPPcP10Mandelbrot+0x2f8>
   1000030cc:	17ffffeb 	b	100003078 <__ZNSt3__112__hash_tableINS_17__hash_value_typeIjN2sf4Font4PageEEENS_22__unordered_map_hasherIjS5_NS_4hashIjEENS_8equal_toIjEELb1EEENS_21__unordered_map_equalIjS5_SA_S8_Lb1EEENS_9allocatorIS5_EEED2Ev+0x40>

00000001000030d0 <__ZNSt3__112basic_stringIcNS_11char_traitsIcEENS_9allocatorIcEEE6appendB8ne190102IPKcLi0EEERS5_T_SA_>:
   1000030d0:	d10183ff 	sub	sp, sp, #0x60
   1000030d4:	a9025ff8 	stp	x24, x23, [sp, #32]
   1000030d8:	a90357f6 	stp	x22, x21, [sp, #48]
   1000030dc:	a9044ff4 	stp	x20, x19, [sp, #64]
   1000030e0:	a9057bfd 	stp	x29, x30, [sp, #80]
   1000030e4:	910143fd 	add	x29, sp, #0x50
   1000030e8:	aa0003f3 	mov	x19, x0
   1000030ec:	39805c15 	ldrsb	x21, [x0, #23]
   1000030f0:	eb010054 	subs	x20, x2, x1
   1000030f4:	b7f80115 	tbnz	x21, #63, 100003114 <__ZNSt3__112basic_stringIcNS_11char_traitsIcEENS_9allocatorIcEEE6appendB8ne190102IPKcLi0EEERS5_T_SA_+0x44>
   1000030f8:	54000ce0 	b.eq	100003294 <__ZNSt3__112basic_stringIcNS_11char_traitsIcEENS_9allocatorIcEEE6appendB8ne190102IPKcLi0EEERS5_T_SA_+0x1c4>  // b.none
   1000030fc:	528002c8 	mov	w8, #0x16                  	// #22
   100003100:	aa1503e9 	mov	x9, x21
   100003104:	aa1303ea 	mov	x10, x19
   100003108:	eb01027f 	cmp	x19, x1
   10000310c:	54000149 	b.ls	100003134 <__ZNSt3__112basic_stringIcNS_11char_traitsIcEENS_9allocatorIcEEE6appendB8ne190102IPKcLi0EEERS5_T_SA_+0x64>  // b.plast
   100003110:	14000017 	b	10000316c <__ZNSt3__112basic_stringIcNS_11char_traitsIcEENS_9allocatorIcEEE6appendB8ne190102IPKcLi0EEERS5_T_SA_+0x9c>
   100003114:	54000c00 	b.eq	100003294 <__ZNSt3__112basic_stringIcNS_11char_traitsIcEENS_9allocatorIcEEE6appendB8ne190102IPKcLi0EEERS5_T_SA_+0x1c4>  // b.none
   100003118:	a940a675 	ldp	x21, x9, [x19, #8]
   10000311c:	9240f928 	and	x8, x9, #0x7fffffffffffffff
   100003120:	d1000508 	sub	x8, x8, #0x1
   100003124:	f940026a 	ldr	x10, [x19]
   100003128:	d378fd29 	lsr	x9, x9, #56
   10000312c:	eb01015f 	cmp	x10, x1
   100003130:	540001e8 	b.hi	10000316c <__ZNSt3__112basic_stringIcNS_11char_traitsIcEENS_9allocatorIcEEE6appendB8ne190102IPKcLi0EEERS5_T_SA_+0x9c>  // b.pmore
   100003134:	8b15014a 	add	x10, x10, x21
   100003138:	9100054a 	add	x10, x10, #0x1
   10000313c:	eb01015f 	cmp	x10, x1
   100003140:	54000169 	b.ls	10000316c <__ZNSt3__112basic_stringIcNS_11char_traitsIcEENS_9allocatorIcEEE6appendB8ne190102IPKcLi0EEERS5_T_SA_+0x9c>  // b.plast
   100003144:	b27defe8 	mov	x8, #0x7ffffffffffffff8    	// #9223372036854775800
   100003148:	eb08029f 	cmp	x20, x8
   10000314c:	54000b22 	b.cs	1000032b0 <__ZNSt3__112basic_stringIcNS_11char_traitsIcEENS_9allocatorIcEEE6appendB8ne190102IPKcLi0EEERS5_T_SA_+0x1e0>  // b.hs, b.nlast
   100003150:	f1005a9f 	cmp	x20, #0x16
   100003154:	540005c8 	b.hi	10000320c <__ZNSt3__112basic_stringIcNS_11char_traitsIcEENS_9allocatorIcEEE6appendB8ne190102IPKcLi0EEERS5_T_SA_+0x13c>  // b.pmore
   100003158:	39007ff4 	strb	w20, [sp, #31]
   10000315c:	910023f5 	add	x21, sp, #0x8
   100003160:	eb01005f 	cmp	x2, x1
   100003164:	54000721 	b.ne	100003248 <__ZNSt3__112basic_stringIcNS_11char_traitsIcEENS_9allocatorIcEEE6appendB8ne190102IPKcLi0EEERS5_T_SA_+0x178>  // b.any
   100003168:	1400003b 	b	100003254 <__ZNSt3__112basic_stringIcNS_11char_traitsIcEENS_9allocatorIcEEE6appendB8ne190102IPKcLi0EEERS5_T_SA_+0x184>
   10000316c:	cb15010a 	sub	x10, x8, x21
   100003170:	eb14015f 	cmp	x10, x20
   100003174:	54000203 	b.cc	1000031b4 <__ZNSt3__112basic_stringIcNS_11char_traitsIcEENS_9allocatorIcEEE6appendB8ne190102IPKcLi0EEERS5_T_SA_+0xe4>  // b.lo, b.ul, b.last
   100003178:	aa1303e8 	mov	x8, x19
   10000317c:	373803e9 	tbnz	w9, #7, 1000031f8 <__ZNSt3__112basic_stringIcNS_11char_traitsIcEENS_9allocatorIcEEE6appendB8ne190102IPKcLi0EEERS5_T_SA_+0x128>
   100003180:	8b150116 	add	x22, x8, x21
   100003184:	eb01005f 	cmp	x2, x1
   100003188:	54000080 	b.eq	100003198 <__ZNSt3__112basic_stringIcNS_11char_traitsIcEENS_9allocatorIcEEE6appendB8ne190102IPKcLi0EEERS5_T_SA_+0xc8>  // b.none
   10000318c:	aa1603e0 	mov	x0, x22
   100003190:	aa1403e2 	mov	x2, x20
   100003194:	94000180 	bl	100003794 <__Z10parseFlagsiPPcP10Mandelbrot+0x370>
   100003198:	38346adf 	strb	wzr, [x22, x20]
   10000319c:	8b150288 	add	x8, x20, x21
   1000031a0:	39c05e69 	ldrsb	w9, [x19, #23]
   1000031a4:	37f80769 	tbnz	w9, #31, 100003290 <__ZNSt3__112basic_stringIcNS_11char_traitsIcEENS_9allocatorIcEEE6appendB8ne190102IPKcLi0EEERS5_T_SA_+0x1c0>
   1000031a8:	12001908 	and	w8, w8, #0x7f
   1000031ac:	39005e68 	strb	w8, [x19, #23]
   1000031b0:	14000039 	b	100003294 <__ZNSt3__112basic_stringIcNS_11char_traitsIcEENS_9allocatorIcEEE6appendB8ne190102IPKcLi0EEERS5_T_SA_+0x1c4>
   1000031b4:	cb0802a9 	sub	x9, x21, x8
   1000031b8:	aa0203f6 	mov	x22, x2
   1000031bc:	8b140122 	add	x2, x9, x20
   1000031c0:	aa1303e0 	mov	x0, x19
   1000031c4:	aa0103f7 	mov	x23, x1
   1000031c8:	aa0803e1 	mov	x1, x8
   1000031cc:	aa1503e3 	mov	x3, x21
   1000031d0:	aa1503e4 	mov	x4, x21
   1000031d4:	d2800005 	mov	x5, #0x0                   	// #0
   1000031d8:	d2800006 	mov	x6, #0x0                   	// #0
   1000031dc:	94000141 	bl	1000036e0 <__Z10parseFlagsiPPcP10Mandelbrot+0x2bc>
   1000031e0:	aa1603e2 	mov	x2, x22
   1000031e4:	aa1703e1 	mov	x1, x23
   1000031e8:	f9000675 	str	x21, [x19, #8]
   1000031ec:	39405e69 	ldrb	w9, [x19, #23]
   1000031f0:	aa1303e8 	mov	x8, x19
   1000031f4:	363ffc69 	tbz	w9, #7, 100003180 <__ZNSt3__112basic_stringIcNS_11char_traitsIcEENS_9allocatorIcEEE6appendB8ne190102IPKcLi0EEERS5_T_SA_+0xb0>
   1000031f8:	f9400268 	ldr	x8, [x19]
   1000031fc:	8b150116 	add	x22, x8, x21
   100003200:	eb01005f 	cmp	x2, x1
   100003204:	54fffc41 	b.ne	10000318c <__ZNSt3__112basic_stringIcNS_11char_traitsIcEENS_9allocatorIcEEE6appendB8ne190102IPKcLi0EEERS5_T_SA_+0xbc>  // b.any
   100003208:	17ffffe4 	b	100003198 <__ZNSt3__112basic_stringIcNS_11char_traitsIcEENS_9allocatorIcEEE6appendB8ne190102IPKcLi0EEERS5_T_SA_+0xc8>
   10000320c:	b2400a88 	orr	x8, x20, #0x7
   100003210:	f1005d1f 	cmp	x8, #0x17
   100003214:	52800329 	mov	w9, #0x19                  	// #25
   100003218:	9a880536 	csinc	x22, x9, x8, eq	// eq = none
   10000321c:	aa1603e0 	mov	x0, x22
   100003220:	aa0103f5 	mov	x21, x1
   100003224:	aa0203f7 	mov	x23, x2
   100003228:	94000140 	bl	100003728 <__Z10parseFlagsiPPcP10Mandelbrot+0x304>
   10000322c:	aa1503e1 	mov	x1, x21
   100003230:	aa0003f5 	mov	x21, x0
   100003234:	b24102c8 	orr	x8, x22, #0x8000000000000000
   100003238:	a90123f4 	stp	x20, x8, [sp, #16]
   10000323c:	f90007e0 	str	x0, [sp, #8]
   100003240:	eb0102ff 	cmp	x23, x1
   100003244:	54000080 	b.eq	100003254 <__ZNSt3__112basic_stringIcNS_11char_traitsIcEENS_9allocatorIcEEE6appendB8ne190102IPKcLi0EEERS5_T_SA_+0x184>  // b.none
   100003248:	aa1503e0 	mov	x0, x21
   10000324c:	aa1403e2 	mov	x2, x20
   100003250:	9400014e 	bl	100003788 <__Z10parseFlagsiPPcP10Mandelbrot+0x364>
   100003254:	38346abf 	strb	wzr, [x21, x20]
   100003258:	39407fe8 	ldrb	w8, [sp, #31]
   10000325c:	13001d09 	sxtb	w9, w8
   100003260:	a940afea 	ldp	x10, x11, [sp, #8]
   100003264:	7100013f 	cmp	w9, #0x0
   100003268:	910023e9 	add	x9, sp, #0x8
   10000326c:	9a89b141 	csel	x1, x10, x9, lt	// lt = tstop
   100003270:	9a88b162 	csel	x2, x11, x8, lt	// lt = tstop
   100003274:	aa1303e0 	mov	x0, x19
   100003278:	94000117 	bl	1000036d4 <__Z10parseFlagsiPPcP10Mandelbrot+0x2b0>
   10000327c:	39c07fe8 	ldrsb	w8, [sp, #31]
   100003280:	36f800a8 	tbz	w8, #31, 100003294 <__ZNSt3__112basic_stringIcNS_11char_traitsIcEENS_9allocatorIcEEE6appendB8ne190102IPKcLi0EEERS5_T_SA_+0x1c4>
   100003284:	f94007e0 	ldr	x0, [sp, #8]
   100003288:	94000125 	bl	10000371c <__Z10parseFlagsiPPcP10Mandelbrot+0x2f8>
   10000328c:	14000002 	b	100003294 <__ZNSt3__112basic_stringIcNS_11char_traitsIcEENS_9allocatorIcEEE6appendB8ne190102IPKcLi0EEERS5_T_SA_+0x1c4>
   100003290:	f9000668 	str	x8, [x19, #8]
   100003294:	aa1303e0 	mov	x0, x19
   100003298:	a9457bfd 	ldp	x29, x30, [sp, #80]
   10000329c:	a9444ff4 	ldp	x20, x19, [sp, #64]
   1000032a0:	a94357f6 	ldp	x22, x21, [sp, #48]
   1000032a4:	a9425ff8 	ldp	x24, x23, [sp, #32]
   1000032a8:	910183ff 	add	sp, sp, #0x60
   1000032ac:	d65f03c0 	ret
   1000032b0:	910023e0 	add	x0, sp, #0x8
   1000032b4:	94000008 	bl	1000032d4 <__ZNKSt3__112basic_stringIcNS_11char_traitsIcEENS_9allocatorIcEEE20__throw_length_errorB8ne190102Ev>
   1000032b8:	aa0003f3 	mov	x19, x0
   1000032bc:	39c07fe8 	ldrsb	w8, [sp, #31]
   1000032c0:	36f80068 	tbz	w8, #31, 1000032cc <__ZNSt3__112basic_stringIcNS_11char_traitsIcEENS_9allocatorIcEEE6appendB8ne190102IPKcLi0EEERS5_T_SA_+0x1fc>
   1000032c4:	f94007e0 	ldr	x0, [sp, #8]
   1000032c8:	94000115 	bl	10000371c <__Z10parseFlagsiPPcP10Mandelbrot+0x2f8>
   1000032cc:	aa1303e0 	mov	x0, x19
   1000032d0:	940000c5 	bl	1000035e4 <__Z10parseFlagsiPPcP10Mandelbrot+0x1c0>

00000001000032d4 <__ZNKSt3__112basic_stringIcNS_11char_traitsIcEENS_9allocatorIcEEE20__throw_length_errorB8ne190102Ev>:
   1000032d4:	a9bf7bfd 	stp	x29, x30, [sp, #-16]!
   1000032d8:	910003fd 	mov	x29, sp
   1000032dc:	90000000 	adrp	x0, 100003000 <__ZN2sf4FontD1Ev+0x50>
   1000032e0:	91246c00 	add	x0, x0, #0x91b
   1000032e4:	94000001 	bl	1000032e8 <__ZNSt3__120__throw_length_errorB8ne190102EPKc>

00000001000032e8 <__ZNSt3__120__throw_length_errorB8ne190102EPKc>:
   1000032e8:	a9be4ff4 	stp	x20, x19, [sp, #-32]!
   1000032ec:	a9017bfd 	stp	x29, x30, [sp, #16]
   1000032f0:	910043fd 	add	x29, sp, #0x10
   1000032f4:	aa0003f4 	mov	x20, x0
   1000032f8:	52800200 	mov	w0, #0x10                  	// #16
   1000032fc:	9400010e 	bl	100003734 <__Z10parseFlagsiPPcP10Mandelbrot+0x310>
   100003300:	aa0003f3 	mov	x19, x0
   100003304:	aa1403e1 	mov	x1, x20
   100003308:	9400000c 	bl	100003338 <__ZNSt12length_errorC1B8ne190102EPKc>
   10000330c:	b0000001 	adrp	x1, 100004000 <GCC_except_table7+0x724>
   100003310:	f940b421 	ldr	x1, [x1, #360]
   100003314:	b0000002 	adrp	x2, 100004000 <GCC_except_table7+0x724>
   100003318:	f9405842 	ldr	x2, [x2, #176]
   10000331c:	aa1303e0 	mov	x0, x19
   100003320:	9400010b 	bl	10000374c <__Z10parseFlagsiPPcP10Mandelbrot+0x328>
   100003324:	aa0003f4 	mov	x20, x0
   100003328:	aa1303e0 	mov	x0, x19
   10000332c:	94000105 	bl	100003740 <__Z10parseFlagsiPPcP10Mandelbrot+0x31c>
   100003330:	aa1403e0 	mov	x0, x20
   100003334:	940000ac 	bl	1000035e4 <__Z10parseFlagsiPPcP10Mandelbrot+0x1c0>

0000000100003338 <__ZNSt12length_errorC1B8ne190102EPKc>:
   100003338:	a9bf7bfd 	stp	x29, x30, [sp, #-16]!
   10000333c:	910003fd 	mov	x29, sp
   100003340:	940000e2 	bl	1000036c8 <__Z10parseFlagsiPPcP10Mandelbrot+0x2a4>
   100003344:	b0000008 	adrp	x8, 100004000 <GCC_except_table7+0x724>
   100003348:	f9407508 	ldr	x8, [x8, #232]
   10000334c:	91004108 	add	x8, x8, #0x10
   100003350:	f9000008 	str	x8, [x0]
   100003354:	a8c17bfd 	ldp	x29, x30, [sp], #16
   100003358:	d65f03c0 	ret

000000010000335c <__Z8TestsRunPN2sf12RenderWindowEPNS_6VertexEPK16WindowParametersP10Mandelbrot>:
   10000335c:	d10183ff 	sub	sp, sp, #0x60
   100003360:	a90167fa 	stp	x26, x25, [sp, #16]
   100003364:	a9025ff8 	stp	x24, x23, [sp, #32]
   100003368:	a90357f6 	stp	x22, x21, [sp, #48]
   10000336c:	a9044ff4 	stp	x20, x19, [sp, #64]
   100003370:	a9057bfd 	stp	x29, x30, [sp, #80]
   100003374:	910143fd 	add	x29, sp, #0x50
   100003378:	aa0303f3 	mov	x19, x3
   10000337c:	aa0203f4 	mov	x20, x2
   100003380:	aa0103f5 	mov	x21, x1
   100003384:	52800c96 	mov	w22, #0x64                  	// #100
   100003388:	b0000017 	adrp	x23, 100004000 <GCC_except_table7+0x724>
   10000338c:	910662f7 	add	x23, x23, #0x198
   100003390:	b9803668 	ldrsw	x8, [x19, #52]
   100003394:	f8687ae8 	ldr	x8, [x23, x8, lsl #3]
   100003398:	aa1503e0 	mov	x0, x21
   10000339c:	aa1403e1 	mov	x1, x20
   1000033a0:	aa1303e2 	mov	x2, x19
   1000033a4:	d63f0100 	blr	x8
   1000033a8:	f10006d6 	subs	x22, x22, #0x1
   1000033ac:	54ffff21 	b.ne	100003390 <__Z8TestsRunPN2sf12RenderWindowEPNS_6VertexEPK16WindowParametersP10Mandelbrot+0x34>  // b.any
   1000033b0:	b9402e68 	ldr	w8, [x19, #44]
   1000033b4:	34000288 	cbz	w8, 100003404 <__Z8TestsRunPN2sf12RenderWindowEPNS_6VertexEPK16WindowParametersP10Mandelbrot+0xa8>
   1000033b8:	d2800018 	mov	x24, #0x0                   	// #0
   1000033bc:	90000016 	adrp	x22, 100003000 <__ZN2sf4FontD1Ev+0x50>
   1000033c0:	9124a2d6 	add	x22, x22, #0x928
   1000033c4:	d53be059 	mrs	x25, cntvct_el0
   1000033c8:	b9803668 	ldrsw	x8, [x19, #52]
   1000033cc:	f8687ae8 	ldr	x8, [x23, x8, lsl #3]
   1000033d0:	aa1503e0 	mov	x0, x21
   1000033d4:	aa1403e1 	mov	x1, x20
   1000033d8:	aa1303e2 	mov	x2, x19
   1000033dc:	d63f0100 	blr	x8
   1000033e0:	d53be048 	mrs	x8, cntvct_el0
   1000033e4:	cb190108 	sub	x8, x8, x25
   1000033e8:	a90023f8 	stp	x24, x8, [sp]
   1000033ec:	aa1603e0 	mov	x0, x22
   1000033f0:	940000ec 	bl	1000037a0 <__Z10parseFlagsiPPcP10Mandelbrot+0x37c>
   1000033f4:	91000718 	add	x24, x24, #0x1
   1000033f8:	b9802e68 	ldrsw	x8, [x19, #44]
   1000033fc:	eb08031f 	cmp	x24, x8
   100003400:	54fffe23 	b.cc	1000033c4 <__Z8TestsRunPN2sf12RenderWindowEPNS_6VertexEPK16WindowParametersP10Mandelbrot+0x68>  // b.lo, b.ul, b.last
   100003404:	52800000 	mov	w0, #0x0                   	// #0
   100003408:	a9457bfd 	ldp	x29, x30, [sp, #80]
   10000340c:	a9444ff4 	ldp	x20, x19, [sp, #64]
   100003410:	a94357f6 	ldp	x22, x21, [sp, #48]
   100003414:	a9425ff8 	ldp	x24, x23, [sp, #32]
   100003418:	a94167fa 	ldp	x26, x25, [sp, #16]
   10000341c:	910183ff 	add	sp, sp, #0x60
   100003420:	d65f03c0 	ret

0000000100003424 <__Z10parseFlagsiPPcP10Mandelbrot>:
   100003424:	d10583ff 	sub	sp, sp, #0x160
   100003428:	a9116ffc 	stp	x28, x27, [sp, #272]
   10000342c:	a9125ff8 	stp	x24, x23, [sp, #288]
   100003430:	a91357f6 	stp	x22, x21, [sp, #304]
   100003434:	a9144ff4 	stp	x20, x19, [sp, #320]
   100003438:	a9157bfd 	stp	x29, x30, [sp, #336]
   10000343c:	910543fd 	add	x29, sp, #0x150
   100003440:	aa0203f3 	mov	x19, x2
   100003444:	aa0103f4 	mov	x20, x1
   100003448:	aa0003f5 	mov	x21, x0
   10000344c:	b0000008 	adrp	x8, 100004000 <GCC_except_table7+0x724>
   100003450:	f9409108 	ldr	x8, [x8, #288]
   100003454:	f9400108 	ldr	x8, [x8]
   100003458:	f81b83a8 	stur	x8, [x29, #-72]
   10000345c:	90000008 	adrp	x8, 100003000 <__ZN2sf4FontD1Ev+0x50>
   100003460:	9124e508 	add	x8, x8, #0x939
   100003464:	f90007e8 	str	x8, [sp, #8]
   100003468:	b90013ff 	str	wzr, [sp, #16]
   10000346c:	9100c048 	add	x8, x2, #0x30
   100003470:	f9000fe8 	str	x8, [sp, #24]
   100003474:	52800037 	mov	w23, #0x1                   	// #1
   100003478:	b90023f7 	str	w23, [sp, #32]
   10000347c:	90000009 	adrp	x9, 100003000 <__ZN2sf4FontD1Ev+0x50>
   100003480:	91250929 	add	x9, x9, #0x942
   100003484:	f90017e9 	str	x9, [sp, #40]
   100003488:	b90033ff 	str	wzr, [sp, #48]
   10000348c:	f9001fe8 	str	x8, [sp, #56]
   100003490:	b90043ff 	str	wzr, [sp, #64]
   100003494:	90000008 	adrp	x8, 100003000 <__ZN2sf4FontD1Ev+0x50>
   100003498:	91253908 	add	x8, x8, #0x94e
   10000349c:	f90027e8 	str	x8, [sp, #72]
   1000034a0:	b90053f7 	str	w23, [sp, #80]
   1000034a4:	f9002fff 	str	xzr, [sp, #88]
   1000034a8:	52800e48 	mov	w8, #0x72                  	// #114
   1000034ac:	b90063e8 	str	w8, [sp, #96]
   1000034b0:	90000008 	adrp	x8, 100003000 <__ZN2sf4FontD1Ev+0x50>
   1000034b4:	91254d08 	add	x8, x8, #0x953
   1000034b8:	f90037e8 	str	x8, [sp, #104]
   1000034bc:	b90073f7 	str	w23, [sp, #112]
   1000034c0:	f9003fff 	str	xzr, [sp, #120]
   1000034c4:	52800e88 	mov	w8, #0x74                  	// #116
   1000034c8:	b90083e8 	str	w8, [sp, #128]
   1000034cc:	90000008 	adrp	x8, 100003000 <__ZN2sf4FontD1Ev+0x50>
   1000034d0:	91256108 	add	x8, x8, #0x958
   1000034d4:	f90047e8 	str	x8, [sp, #136]
   1000034d8:	b90093ff 	str	wzr, [sp, #144]
   1000034dc:	9100d048 	add	x8, x2, #0x34
   1000034e0:	f9004fe8 	str	x8, [sp, #152]
   1000034e4:	b900a3ff 	str	wzr, [sp, #160]
   1000034e8:	90000009 	adrp	x9, 100003000 <__ZN2sf4FontD1Ev+0x50>
   1000034ec:	91257d29 	add	x9, x9, #0x95f
   1000034f0:	f90057e9 	str	x9, [sp, #168]
   1000034f4:	b900b3ff 	str	wzr, [sp, #176]
   1000034f8:	f9005fe8 	str	x8, [sp, #184]
   1000034fc:	b900c3f7 	str	w23, [sp, #192]
   100003500:	90000009 	adrp	x9, 100003000 <__ZN2sf4FontD1Ev+0x50>
   100003504:	91259929 	add	x9, x9, #0x966
   100003508:	f90067e9 	str	x9, [sp, #200]
   10000350c:	b900d3ff 	str	wzr, [sp, #208]
   100003510:	f9006fe8 	str	x8, [sp, #216]
   100003514:	52800048 	mov	w8, #0x2                   	// #2
   100003518:	b900e3e8 	str	w8, [sp, #224]
   10000351c:	f90077ff 	str	xzr, [sp, #232]
   100003520:	b900f3ff 	str	wzr, [sp, #240]
   100003524:	f9007fff 	str	xzr, [sp, #248]
   100003528:	b90103ff 	str	wzr, [sp, #256]
   10000352c:	90000016 	adrp	x22, 100003000 <__ZN2sf4FontD1Ev+0x50>
   100003530:	9124cad6 	add	x22, x22, #0x932
   100003534:	b0000018 	adrp	x24, 100004000 <GCC_except_table7+0x724>
   100003538:	f940ab18 	ldr	x24, [x24, #336]
   10000353c:	14000003 	b	100003548 <__Z10parseFlagsiPPcP10Mandelbrot+0x124>
   100003540:	3100041f 	cmn	w0, #0x1
   100003544:	54000320 	b.eq	1000035a8 <__Z10parseFlagsiPPcP10Mandelbrot+0x184>  // b.none
   100003548:	910023e3 	add	x3, sp, #0x8
   10000354c:	aa1503e0 	mov	x0, x21
   100003550:	aa1403e1 	mov	x1, x20
   100003554:	aa1603e2 	mov	x2, x22
   100003558:	d2800004 	mov	x4, #0x0                   	// #0
   10000355c:	94000088 	bl	10000377c <__Z10parseFlagsiPPcP10Mandelbrot+0x358>
   100003560:	7101c81f 	cmp	w0, #0x72
   100003564:	54000100 	b.eq	100003584 <__Z10parseFlagsiPPcP10Mandelbrot+0x160>  // b.none
   100003568:	7101d01f 	cmp	w0, #0x74
   10000356c:	54fffea1 	b.ne	100003540 <__Z10parseFlagsiPPcP10Mandelbrot+0x11c>  // b.any
   100003570:	f9400300 	ldr	x0, [x24]
   100003574:	b4000120 	cbz	x0, 100003598 <__Z10parseFlagsiPPcP10Mandelbrot+0x174>
   100003578:	9400007b 	bl	100003764 <__Z10parseFlagsiPPcP10Mandelbrot+0x340>
   10000357c:	b9002e60 	str	w0, [x19, #44]
   100003580:	17fffff2 	b	100003548 <__Z10parseFlagsiPPcP10Mandelbrot+0x124>
   100003584:	f9400300 	ldr	x0, [x24]
   100003588:	b40000c0 	cbz	x0, 1000035a0 <__Z10parseFlagsiPPcP10Mandelbrot+0x17c>
   10000358c:	94000076 	bl	100003764 <__Z10parseFlagsiPPcP10Mandelbrot+0x340>
   100003590:	b9002a60 	str	w0, [x19, #40]
   100003594:	17ffffed 	b	100003548 <__Z10parseFlagsiPPcP10Mandelbrot+0x124>
   100003598:	b9002e7f 	str	wzr, [x19, #44]
   10000359c:	17ffffeb 	b	100003548 <__Z10parseFlagsiPPcP10Mandelbrot+0x124>
   1000035a0:	b9002a77 	str	w23, [x19, #40]
   1000035a4:	17ffffe9 	b	100003548 <__Z10parseFlagsiPPcP10Mandelbrot+0x124>
   1000035a8:	f85b83a8 	ldur	x8, [x29, #-72]
   1000035ac:	b0000009 	adrp	x9, 100004000 <GCC_except_table7+0x724>
   1000035b0:	f9409129 	ldr	x9, [x9, #288]
   1000035b4:	f9400129 	ldr	x9, [x9]
   1000035b8:	eb08013f 	cmp	x9, x8
   1000035bc:	54000121 	b.ne	1000035e0 <__Z10parseFlagsiPPcP10Mandelbrot+0x1bc>  // b.any
   1000035c0:	52800000 	mov	w0, #0x0                   	// #0
   1000035c4:	a9557bfd 	ldp	x29, x30, [sp, #336]
   1000035c8:	a9544ff4 	ldp	x20, x19, [sp, #320]
   1000035cc:	a95357f6 	ldp	x22, x21, [sp, #304]
   1000035d0:	a9525ff8 	ldp	x24, x23, [sp, #288]
   1000035d4:	a9516ffc 	ldp	x28, x27, [sp, #272]
   1000035d8:	910583ff 	add	sp, sp, #0x160
   1000035dc:	d65f03c0 	ret
   1000035e0:	9400005e 	bl	100003758 <__Z10parseFlagsiPPcP10Mandelbrot+0x334>

Disassembly of section __TEXT.__stubs:

00000001000035e4 <__TEXT.__stubs>:
   1000035e4:	b0000010 	adrp	x16, 100004000 <GCC_except_table7+0x724>
   1000035e8:	f9408a10 	ldr	x16, [x16, #272]
   1000035ec:	d61f0200 	br	x16
   1000035f0:	b0000010 	adrp	x16, 100004000 <GCC_except_table7+0x724>
   1000035f4:	f9403a10 	ldr	x16, [x16, #112]
   1000035f8:	d61f0200 	br	x16
   1000035fc:	b0000010 	adrp	x16, 100004000 <GCC_except_table7+0x724>
   100003600:	f9400610 	ldr	x16, [x16, #8]
   100003604:	d61f0200 	br	x16
   100003608:	b0000010 	adrp	x16, 100004000 <GCC_except_table7+0x724>
   10000360c:	f9400a10 	ldr	x16, [x16, #16]
   100003610:	d61f0200 	br	x16
   100003614:	b0000010 	adrp	x16, 100004000 <GCC_except_table7+0x724>
   100003618:	f9400e10 	ldr	x16, [x16, #24]
   10000361c:	d61f0200 	br	x16
   100003620:	b0000010 	adrp	x16, 100004000 <GCC_except_table7+0x724>
   100003624:	f9401210 	ldr	x16, [x16, #32]
   100003628:	d61f0200 	br	x16
   10000362c:	b0000010 	adrp	x16, 100004000 <GCC_except_table7+0x724>
   100003630:	f9401610 	ldr	x16, [x16, #40]
   100003634:	d61f0200 	br	x16
   100003638:	b0000010 	adrp	x16, 100004000 <GCC_except_table7+0x724>
   10000363c:	f9401a10 	ldr	x16, [x16, #48]
   100003640:	d61f0200 	br	x16
   100003644:	b0000010 	adrp	x16, 100004000 <GCC_except_table7+0x724>
   100003648:	f9401e10 	ldr	x16, [x16, #56]
   10000364c:	d61f0200 	br	x16
   100003650:	b0000010 	adrp	x16, 100004000 <GCC_except_table7+0x724>
   100003654:	f9402210 	ldr	x16, [x16, #64]
   100003658:	d61f0200 	br	x16
   10000365c:	b0000010 	adrp	x16, 100004000 <GCC_except_table7+0x724>
   100003660:	f9402610 	ldr	x16, [x16, #72]
   100003664:	d61f0200 	br	x16
   100003668:	b0000010 	adrp	x16, 100004000 <GCC_except_table7+0x724>
   10000366c:	f9402a10 	ldr	x16, [x16, #80]
   100003670:	d61f0200 	br	x16
   100003674:	b0000010 	adrp	x16, 100004000 <GCC_except_table7+0x724>
   100003678:	f9404e10 	ldr	x16, [x16, #152]
   10000367c:	d61f0200 	br	x16
   100003680:	b0000010 	adrp	x16, 100004000 <GCC_except_table7+0x724>
   100003684:	f9405210 	ldr	x16, [x16, #160]
   100003688:	d61f0200 	br	x16
   10000368c:	b0000010 	adrp	x16, 100004000 <GCC_except_table7+0x724>
   100003690:	f9403e10 	ldr	x16, [x16, #120]
   100003694:	d61f0200 	br	x16
   100003698:	b0000010 	adrp	x16, 100004000 <GCC_except_table7+0x724>
   10000369c:	f9404210 	ldr	x16, [x16, #128]
   1000036a0:	d61f0200 	br	x16
   1000036a4:	b0000010 	adrp	x16, 100004000 <GCC_except_table7+0x724>
   1000036a8:	f9402e10 	ldr	x16, [x16, #88]
   1000036ac:	d61f0200 	br	x16
   1000036b0:	b0000010 	adrp	x16, 100004000 <GCC_except_table7+0x724>
   1000036b4:	f9404610 	ldr	x16, [x16, #136]
   1000036b8:	d61f0200 	br	x16
   1000036bc:	b0000010 	adrp	x16, 100004000 <GCC_except_table7+0x724>
   1000036c0:	f9404a10 	ldr	x16, [x16, #144]
   1000036c4:	d61f0200 	br	x16
   1000036c8:	b0000010 	adrp	x16, 100004000 <GCC_except_table7+0x724>
   1000036cc:	f9405610 	ldr	x16, [x16, #168]
   1000036d0:	d61f0200 	br	x16
   1000036d4:	b0000010 	adrp	x16, 100004000 <GCC_except_table7+0x724>
   1000036d8:	f9405e10 	ldr	x16, [x16, #184]
   1000036dc:	d61f0200 	br	x16
   1000036e0:	b0000010 	adrp	x16, 100004000 <GCC_except_table7+0x724>
   1000036e4:	f9406210 	ldr	x16, [x16, #192]
   1000036e8:	d61f0200 	br	x16
   1000036ec:	b0000010 	adrp	x16, 100004000 <GCC_except_table7+0x724>
   1000036f0:	f9406610 	ldr	x16, [x16, #200]
   1000036f4:	d61f0200 	br	x16
   1000036f8:	b0000010 	adrp	x16, 100004000 <GCC_except_table7+0x724>
   1000036fc:	f9406a10 	ldr	x16, [x16, #208]
   100003700:	d61f0200 	br	x16
   100003704:	b0000010 	adrp	x16, 100004000 <GCC_except_table7+0x724>
   100003708:	f9406e10 	ldr	x16, [x16, #216]
   10000370c:	d61f0200 	br	x16
   100003710:	b0000010 	adrp	x16, 100004000 <GCC_except_table7+0x724>
   100003714:	f9407210 	ldr	x16, [x16, #224]
   100003718:	d61f0200 	br	x16
   10000371c:	b0000010 	adrp	x16, 100004000 <GCC_except_table7+0x724>
   100003720:	f940ba10 	ldr	x16, [x16, #368]
   100003724:	d61f0200 	br	x16
   100003728:	b0000010 	adrp	x16, 100004000 <GCC_except_table7+0x724>
   10000372c:	f940be10 	ldr	x16, [x16, #376]
   100003730:	d61f0200 	br	x16
   100003734:	b0000010 	adrp	x16, 100004000 <GCC_except_table7+0x724>
   100003738:	f9407a10 	ldr	x16, [x16, #240]
   10000373c:	d61f0200 	br	x16
   100003740:	b0000010 	adrp	x16, 100004000 <GCC_except_table7+0x724>
   100003744:	f9407e10 	ldr	x16, [x16, #248]
   100003748:	d61f0200 	br	x16
   10000374c:	b0000010 	adrp	x16, 100004000 <GCC_except_table7+0x724>
   100003750:	f9408210 	ldr	x16, [x16, #256]
   100003754:	d61f0200 	br	x16
   100003758:	b0000010 	adrp	x16, 100004000 <GCC_except_table7+0x724>
   10000375c:	f9408e10 	ldr	x16, [x16, #280]
   100003760:	d61f0200 	br	x16
   100003764:	b0000010 	adrp	x16, 100004000 <GCC_except_table7+0x724>
   100003768:	f9409610 	ldr	x16, [x16, #296]
   10000376c:	d61f0200 	br	x16
   100003770:	b0000010 	adrp	x16, 100004000 <GCC_except_table7+0x724>
   100003774:	f9409a10 	ldr	x16, [x16, #304]
   100003778:	d61f0200 	br	x16
   10000377c:	b0000010 	adrp	x16, 100004000 <GCC_except_table7+0x724>
   100003780:	f9409e10 	ldr	x16, [x16, #312]
   100003784:	d61f0200 	br	x16
   100003788:	b0000010 	adrp	x16, 100004000 <GCC_except_table7+0x724>
   10000378c:	f940a210 	ldr	x16, [x16, #320]
   100003790:	d61f0200 	br	x16
   100003794:	b0000010 	adrp	x16, 100004000 <GCC_except_table7+0x724>
   100003798:	f940a610 	ldr	x16, [x16, #328]
   10000379c:	d61f0200 	br	x16
   1000037a0:	b0000010 	adrp	x16, 100004000 <GCC_except_table7+0x724>
   1000037a4:	f940ae10 	ldr	x16, [x16, #344]
   1000037a8:	d61f0200 	br	x16
   1000037ac:	b0000010 	adrp	x16, 100004000 <GCC_except_table7+0x724>
   1000037b0:	f940b210 	ldr	x16, [x16, #352]
   1000037b4:	d61f0200 	br	x16

Disassembly of section __TEXT.__gcc_except_tab:

0000000100003850 <GCC_except_table0>:
   100003850:	1a01ffff 	.inst	0x1a01ffff ; undefined
   100003854:	00007800 	udf	#30720
   100003858:	02f81478 	.inst	0x02f81478 ; undefined
   10000385c:	1801b000 	ldr	w0, 100006e5c <__ZL20render_function_type+0x2cc4>
   100003860:	f80002d4 	stur	x20, [x22]
   100003864:	02c02401 	.inst	0x02c02401 ; undefined
   100003868:	70029c00 	adr	x0, 100008beb <__ZL20render_function_type+0x4a53>
   10000386c:	00000000 	udf	#0

0000000100003870 <GCC_except_table1>:
   100003870:	5101ffff 	sub	wsp, wsp, #0x7f
   100003874:	08ac1444 	.inst	0x08ac1444 ; undefined
   100003878:	a80c5800 	stnp	x0, x22, [x0, #192]
   10000387c:	147c0008 	b	101f0389c <__ZL20render_function_type+0x1eff704>
   100003880:	9000088c 	adrp	x12, 100113000 <__ZL20render_function_type+0x10ee68>
   100003884:	07f41401 	.inst	0x07f41401 ; undefined
   100003888:	2401bc00 	cmpeq	p0.b, p7/z, z0.b, z1.b
   10000388c:	940008c8 	bl	100005bac <__ZL20render_function_type+0x1a14>
   100003890:	09940802 	.inst	0x09940802 ; undefined
   100003894:	3402c000 	cbz	w0, 100009094 <__ZL20render_function_type+0x4efc>
   100003898:	f8000998 	sttr	x24, [x12]
   10000389c:	098c0803 	.inst	0x098c0803 ; undefined
   1000038a0:	2404d400 	cmphs	p0.b, p5/z, z0.b, z4.d
   1000038a4:	f8000994 	sttr	x20, [x12]
   1000038a8:	08cc0804 	ldlarb	w4, [x0]
   1000038ac:	1005b000 	adr	x0, 10000eeac <__ZL20render_function_type+0xad14>
   1000038b0:	c00008e8 	mov	za0h.b[w12, 8], p2/m, z7.b
   1000038b4:	08d00c05 	ldlarb	w5, [x0]
   1000038b8:	2c05e800 	stnp	s0, s26, [x0, #44]
   1000038bc:	94000990 	bl	100005efc <__ZL20render_function_type+0x1d64>
   1000038c0:	0003a006 	.inst	0x0003a006 ; undefined
   1000038c4:	00000000 	udf	#0

00000001000038c8 <GCC_except_table5>:
   1000038c8:	1001ffff 	adr	xzr, 1000078c4 <__ZL20render_function_type+0x372c>
   1000038cc:	0003a400 	.inst	0x0003a400 ; undefined
   1000038d0:	0803a400 	stlxrb	w3, w0, [x0]
   1000038d4:	ac0003e8 	stnp	q8, q0, [sp]
   1000038d8:	00005803 	udf	#22531

00000001000038dc <GCC_except_table7>:
   1000038dc:	0c01ffff 	.inst	0x0c01ffff ; undefined
   1000038e0:	00001c00 	udf	#7168
   1000038e4:	003c081c 	.inst	0x003c081c ; NYI
   1000038e8:	00002c24 	udf	#11300

Disassembly of section __TEXT.__unwind_info:

000000010000396c <__TEXT.__unwind_info>:
   10000396c:	00000001 	udf	#1
   100003970:	0000001c 	udf	#28
   100003974:	00000002 	udf	#2
   100003978:	00000024 	udf	#36
   10000397c:	00000001 	udf	#1
   100003980:	00000028 	udf	#40
   100003984:	00000002 	udf	#2
   100003988:	02000000 	.inst	0x02000000 ; undefined
   10000398c:	04000000 	add	z0.b, p0/m, z0.b, z0.b
   100003990:	00004108 	udf	#16648
   100003994:	00001a80 	udf	#6784
   100003998:	0000006c 	udf	#108
   10000399c:	0000004c 	udf	#76
   1000039a0:	000035e4 	udf	#13796
   1000039a4:	00000000 	udf	#0
   1000039a8:	0000006c 	udf	#108
	...
   1000039b8:	00001a80 	udf	#6784
   1000039bc:	00003850 	udf	#14416
   1000039c0:	00002a74 	udf	#10868
   1000039c4:	00003870 	udf	#14448
   1000039c8:	000030d0 	udf	#12496
   1000039cc:	000038c8 	udf	#14536
   1000039d0:	000032e8 	udf	#13032
   1000039d4:	000038dc 	udf	#14556
   1000039d8:	00000003 	udf	#3
   1000039dc:	000e000c 	.inst	0x000e000c ; undefined
   1000039e0:	000a0044 	.inst	0x000a0044 ; undefined
   1000039e4:	02000000 	.inst	0x02000000 ; undefined
   1000039e8:	0000018c 	udf	#396
   1000039ec:	030003d4 	.inst	0x030003d4 ; undefined
   1000039f0:	040006a4 	add	z4.b, p1/m, z4.b, z21.b
   1000039f4:	00000c54 	udf	#3156
   1000039f8:	05000ff4 	.inst	0x05000ff4 ; undefined
   1000039fc:	060014a8 	.inst	0x060014a8 ; undefined
   100003a00:	070015b8 	.inst	0x070015b8 ; undefined
   100003a04:	08001650 	stxrb	w0, w16, [x18]
   100003a08:	01001854 	.inst	0x01001854 ; undefined
   100003a0c:	09001868 	.inst	0x09001868 ; undefined
   100003a10:	010018b8 	.inst	0x010018b8 ; undefined
   100003a14:	0a0018dc 	and	w28, w6, w0, lsl #6
   100003a18:	0b0019a4 	add	w4, w13, w0, lsl #6
   100003a1c:	54000013 	bc.cc	100003a1c <GCC_except_table7+0x140>  // bc.lo, bc.ul, bc.last
   100003a20:	0400070f 	add	z15.b, p1/m, z15.b, z24.b
   100003a24:	02002300 	.inst	0x02002300 ; undefined
   100003a28:	5400011f 	bc.nv	100003a48 <GCC_except_table7+0x16c>
   100003a2c:	04000001 	add	z1.b, p0/m, z1.b, z0.b
   100003a30:	04000003 	add	z3.b, p0/m, z3.b, z0.b
   100003a34:	54000007 	b.vc	100003a34 <GCC_except_table7+0x158>
   100003a38:	54000001 	b.ne	100003a38 <GCC_except_table7+0x15c>  // b.any
   100003a3c:	0400000f 	add	z15.b, p0/m, z15.b, z0.b
   100003a40:	04000017 	add	z23.b, p0/m, z23.b, z0.b
